
uLipeRTOS.elf:     file format elf32-littlearm
uLipeRTOS.elf
architecture: arm, flags 0x00000112:
EXEC_P, HAS_SYMS, D_PAGED
start address 0x08000189

Program Header:
    LOAD off    0x00008000 vaddr 0x08000000 paddr 0x08000000 align 2**15
         filesz 0x000014e8 memsz 0x000014e8 flags rwx
    LOAD off    0x00010000 vaddr 0x20000000 paddr 0x080014e8 align 2**15
         filesz 0x00000004 memsz 0x00001020 flags rw-
private flags = 5000002: [Version5 EABI] [has entry point]

Sections:
Idx Name          Size      VMA       LMA       File off  Algn  Flags
  0 .isr_vector   00000274  08000000  08000000  00008000  2**2  CONTENTS, ALLOC, LOAD, READONLY, CODE
  1 ._inits       00000004  08000274  08000274  00008274  2**2  CONTENTS, ALLOC, LOAD, DATA
  2 .text         00001270  08000278  08000278  00008278  2**2  CONTENTS, ALLOC, LOAD, READONLY, CODE
  3 .data         00000004  20000000  080014e8  00010000  2**0  CONTENTS, ALLOC, LOAD, DATA
  4 .bss          00000f1c  20000004  080014ec  00010004  2**2  ALLOC
  5 ._check_stack 00000100  20000f20  08002408  00010004  2**0  ALLOC
  6 .comment      00000070  00000000  00000000  00010004  2**0  CONTENTS, READONLY
  7 .ARM.attributes 00000031  00000000  00000000  00010074  2**0  CONTENTS, READONLY
  8 .debug_aranges 00000260  00000000  00000000  000100a8  2**3  CONTENTS, READONLY, DEBUGGING
  9 .debug_info   0000205c  00000000  00000000  00010308  2**0  CONTENTS, READONLY, DEBUGGING
 10 .debug_abbrev 00000a54  00000000  00000000  00012364  2**0  CONTENTS, READONLY, DEBUGGING
 11 .debug_line   00002be3  00000000  00000000  00012db8  2**0  CONTENTS, READONLY, DEBUGGING
 12 .debug_frame  000005a0  00000000  00000000  0001599c  2**2  CONTENTS, READONLY, DEBUGGING
 13 .debug_str    000601c5  00000000  00000000  00015f3c  2**0  CONTENTS, READONLY, DEBUGGING
 14 .debug_loc    000008e8  00000000  00000000  00076101  2**0  CONTENTS, READONLY, DEBUGGING
 15 .debug_ranges 000001b0  00000000  00000000  000769e9  2**0  CONTENTS, READONLY, DEBUGGING
 16 .debug_macro  0000fa0c  00000000  00000000  00076b99  2**0  CONTENTS, READONLY, DEBUGGING
SYMBOL TABLE:
08000000 l    d  .isr_vector	00000000 .isr_vector
08000274 l    d  ._inits	00000000 ._inits
08000278 l    d  .text	00000000 .text
20000000 l    d  .data	00000000 .data
20000004 l    d  .bss	00000000 .bss
20000f20 l    d  ._check_stack	00000000 ._check_stack
00000000 l    d  .comment	00000000 .comment
00000000 l    d  .ARM.attributes	00000000 .ARM.attributes
00000000 l    d  .debug_aranges	00000000 .debug_aranges
00000000 l    d  .debug_info	00000000 .debug_info
00000000 l    d  .debug_abbrev	00000000 .debug_abbrev
00000000 l    d  .debug_line	00000000 .debug_line
00000000 l    d  .debug_frame	00000000 .debug_frame
00000000 l    d  .debug_str	00000000 .debug_str
00000000 l    d  .debug_loc	00000000 .debug_loc
00000000 l    d  .debug_ranges	00000000 .debug_ranges
00000000 l    d  .debug_macro	00000000 .debug_macro
00000000 l    df *ABS*	00000000 vectors_stm32f4xx.c
00000000 l    df *ABS*	00000000 startup_cm.c
00000000 l    df *ABS*	00000000  ButtonTask.c
00000000 l    df *ABS*	00000000 LedTask.c
00000000 l    df *ABS*	00000000 main.c
00000000 l    df *ABS*	00000000 startup_stm32f4xx.c
00000000 l    df *ABS*	00000000 system_stm32f4xx.c
08000784 l     F .text	00000186 SetSysClock
080009a2 l       .text	00000000 FIRST_CHANGE
080009c2 l       .text	00000000 SECOND_CHANGE
08000994 l       .text	00000000 NO_SAVE
00000000 l    df *ABS*	00000000 uLipe_Core.c
00000000 l    df *ABS*	00000000 uLipe_Task.c
00000000 l    df *ABS*	00000000 memset.c
08000278 l       ._inits	00000000 __fini_array_end
08000278 l       ._inits	00000000 __fini_array_start
08000278 l       ._inits	00000000 __init_array_end
08000278 l       ._inits	00000000 __preinit_array_end
08000278 l       ._inits	00000000 __init_array_start
08000274 l       ._inits	00000000 __preinit_array_start
0800022c  w    F .isr_vector	00000006 RTC_Alarm_IRQHandler
0800022c  w    F .isr_vector	00000006 HASH_RNG_IRQHandler
0800022c  w    F .isr_vector	00000006 EXTI2_IRQHandler
0800022c  w    F .isr_vector	00000006 TIM8_CC_IRQHandler
08000264  w    F .isr_vector	00000006 DebugMon_Handler
08000274 g     O ._inits	00000004 p_system_init
20000000 g       .data	00000000 __data_start__
2001fc00 g       *ABS*	00000000 _Heap_Limit
0800022c  w    F .isr_vector	00000006 TIM1_CC_IRQHandler
0800022c  w    F .isr_vector	00000006 DMA2_Stream5_IRQHandler
08000c5c g     F .text	000000c2 Core_StackFrameCreate
0800023c  w    F .isr_vector	00000006 HardFault_Handler
0800022c  w    F .isr_vector	00000006 DMA1_Stream5_IRQHandler
0800022c  w    F .isr_vector	00000006 PVD_IRQHandler
0800022c  w    F .isr_vector	00000006 SDIO_IRQHandler
0800022c  w    F .isr_vector	00000006 TAMP_STAMP_IRQHandler
00000400 g       *ABS*	00000000 _Main_Stack_Size
080014e8 g       *ABS*	00000000 _sidata
08000278 g     F .text	0000003e vButtonTaskInit
0800095e g     F .text	00000006 PendSV_Handler
08000234  w    F .isr_vector	00000006 NMI_Handler
080014e8 g       *ABS*	00000000 __exidx_end
080001d4 g     F .isr_vector	00000056 system_init
0800022c  w    F .isr_vector	00000006 CAN2_RX1_IRQHandler
0800022c  w    F .isr_vector	00000006 EXTI3_IRQHandler
08000fbc g     F .text	000002d4 Task_Create
08000dc8 g     F .text	0000002a Core_IdleTask
08000932 g     F .text	00000000 Asm_CriticalIn
20000f20 g       ._check_stack	00000000 _Heap_Begin
0800022c  w    F .isr_vector	00000006 TIM8_TRG_COM_TIM14_IRQHandler
0800022c  w    F .isr_vector	00000006 TIM1_UP_TIM10_IRQHandler
080014e8 g       *ABS*	00000000 _etext
20000004 g       .bss	00000000 _sbss
2001fc00 g       *ABS*	00000000 __Main_Stack_Limit
0800022c  w    F .isr_vector	00000006 TIM8_UP_TIM13_IRQHandler
0800022c  w    F .isr_vector	00000006 I2C3_ER_IRQHandler
0800022c  w    F .isr_vector	00000006 EXTI0_IRQHandler
0800022c  w    F .isr_vector	00000006 I2C2_EV_IRQHandler
20000f20 g       ._check_stack	00000000 _noinit
0800022c  w    F .isr_vector	00000006 DMA1_Stream2_IRQHandler
0800022c  w    F .isr_vector	00000006 CAN1_RX0_IRQHandler
0800022c  w    F .isr_vector	00000006 FPU_IRQHandler
0800022c  w    F .isr_vector	00000006 OTG_HS_WKUP_IRQHandler
20000015 g     O .bss	00000001 bReadyGroup
08000254  w    F .isr_vector	00000006 UsageFault_Handler
0800022c  w    F .isr_vector	00000006 CAN2_SCE_IRQHandler
0800022c  w    F .isr_vector	00000006 DMA2_Stream2_IRQHandler
2000000c g     O .bss	00000004 pxHighReadyTask
20000004 g       .bss	00000000 __bss_start__
20000000 g       .data	00000000 _sdata
0800022c  w    F .isr_vector	00000006 SPI1_IRQHandler
0800022c  w    F .isr_vector	00000006 TIM6_DAC_IRQHandler
0800022c  w    F .isr_vector	00000006 TIM1_BRK_TIM9_IRQHandler
0800022c  w    F .isr_vector	00000006 DCMI_IRQHandler
0800022c  w    F .isr_vector	00000006 CAN2_RX0_IRQHandler
0800093a g     F .text	00000000 Asm_CriticalOut
080014e8 g       *ABS*	00000000 __exidx_start
08000a00 g     F .text	00000082 Core_ReadyTask
0800022c  w    F .isr_vector	00000006 DMA2_Stream3_IRQHandler
08000604 g     F .text	0000008e __libc_init_array
00000400 g       *ABS*	00000000 __Main_Stack_Size
08000942 g     F .text	00000000 Asm_IntLevelContextChange
0800022c  w    F .isr_vector	00000006 USART6_IRQHandler
20000018 g     O .bss	00000100 axButtonTaskStack
0800022c  w    F .isr_vector	00000006 USART3_IRQHandler
20000218 g     O .bss	00000008 abReadyListGrp
0800022c  w    F .isr_vector	00000006 CRYP_IRQHandler
08000694 g     F .text	0000004e __libc_fini_array
20000f20 g       .bss	00000000 _ebss
20000000 g     O .data	00000001 bScheduleFlag
08000188  w    F .isr_vector	0000004c Reset_Handler
0800022c  w    F .isr_vector	00000006 CAN1_RX1_IRQHandler
0800022c  w    F .isr_vector	00000006 UART5_IRQHandler
0800022c  w    F .isr_vector	00000006 DMA2_Stream0_IRQHandler
08000a84 g     F .text	000000aa Core_UnreadyTask
0800022c  w    F .isr_vector	00000006 TIM4_IRQHandler
0800022c  w    F .isr_vector	00000006 I2C1_EV_IRQHandler
0800022c  w    F .isr_vector	00000006 DMA1_Stream6_IRQHandler
20000004 g       .data	00000000 __data_end__
080013d0 g     O .text	00000008 abBitPrioMask
20000008 g     O .bss	00000004 pxCurrentTask
0800022c  w    F .isr_vector	00000006 DMA1_Stream1_IRQHandler
0800022c  w    F .isr_vector	00000006 UART4_IRQHandler
20000f20 g       .bss	00000000 __bss_end__
20000014 g     O .bss	00000001 bOsEnable
0800022c  w    F .isr_vector	00000006 TIM3_IRQHandler
0800022c  w    F .isr_vector	00000006 RCC_IRQHandler
0800022c  w    F .isr_vector	00000006 TIM8_BRK_TIM12_IRQHandler
0800022c  w    F .isr_vector	00000006 Default_Handler
20000220 g     O .bss	00000100 axIdleTaskStack
0800022c  w    F .isr_vector	00000006 EXTI15_10_IRQHandler
00000100 g       *ABS*	00000000 _Minimum_Stack_Size
0800022c  w    F .isr_vector	00000006 ADC_IRQHandler
20000118 g     O .bss	00000100 axLedTaskStack
20000f20 g       ._check_stack	00000000 _end_noinit
0800022c  w    F .isr_vector	00000006 DMA1_Stream7_IRQHandler
08000d20 g     F .text	0000006a Core_Init
08000f1c g     F .text	0000009e Task_InitBlocks
08000364 g     F .text	0000004c vLedTaskInit
0800022c  w    F .isr_vector	00000006 TIM7_IRQHandler
0800022c  w    F .isr_vector	00000006 CAN2_TX_IRQHandler
0800022c  w    F .isr_vector	00000006 TIM5_IRQHandler
0800022c  w    F .isr_vector	00000006 DMA2_Stream7_IRQHandler
0800022c  w    F .isr_vector	00000006 I2C3_EV_IRQHandler
0800022c  w    F .isr_vector	00000006 EXTI9_5_IRQHandler
0800022c  w    F .isr_vector	00000006 RTC_WKUP_IRQHandler
080002b8 g     F .text	00000016 bButtonGet
0800022c  w    F .isr_vector	00000006 ETH_WKUP_IRQHandler
0800022c  w    F .isr_vector	00000006 SPI2_IRQHandler
080013d8 g     O .text	00000100 abLeastBitMap
08000428 g     F .text	00000152 vLedMainTask
0800022c  w    F .isr_vector	00000006 OTG_HS_EP1_IN_IRQHandler
08001290 g     F .text	0000012c memset
08000244  w    F .isr_vector	00000006 MemManage_Handler
0800057c g     F .text	00000086 main
0800022c  w    F .isr_vector	00000006 DMA1_Stream0_IRQHandler
0800022c  w    F .isr_vector	00000006 CAN1_TX_IRQHandler
0800090c g     F .text	00000000 Asm_LowLevelTickInit
0800025c  w    F .isr_vector	00000006 SVC_Handler
0800022c  w    F .isr_vector	00000006 EXTI4_IRQHandler
080006f0 g     F .text	00000092 SystemInit
20000010 g     O .bss	00000004 dTickCounter
08000db0 g     F .text	00000018 Core_EnableSchedule
08000b30 g     F .text	0000012a Core_Schedule
0800022c  w    F .isr_vector	00000006 FSMC_IRQHandler
0800022c  w    F .isr_vector	00000006 ETH_IRQHandler
0800022c  w    F .isr_vector	00000006 OTG_HS_EP1_OUT_IRQHandler
0800022c  w    F .isr_vector	00000006 WWDG_IRQHandler
0800022c  w    F .isr_vector	00000006 TIM2_IRQHandler
080002d0 g     F .text	00000094 vButtonMainTask
0800022c  w    F .isr_vector	00000006 OTG_FS_WKUP_IRQHandler
0800022c  w    F .isr_vector	00000006 TIM1_TRG_COM_TIM11_IRQHandler
0800022c  w    F .isr_vector	00000006 OTG_HS_IRQHandler
08000df4 g     F .text	00000128 Core_TimeTick
20020000 g       *ABS*	00000000 _estack
20000320 g     O .bss	00000c00 axTaskList
20020000 g       *ABS*	00000000 __stack
0800022c  w    F .isr_vector	00000006 EXTI1_IRQHandler
20000004 g       .data	00000000 _edata
08000950 g     F .text	00000000 Asm_TaskLevelContextChange
0800022c  w    F .isr_vector	00000006 USART2_IRQHandler
08000000 g     O .isr_vector	00000188 g_pfnVectors
0800022c  w    F .isr_vector	00000006 I2C2_ER_IRQHandler
0800022c  w    F .isr_vector	00000006 DMA2_Stream1_IRQHandler
20000004 g     O .bss	00000001 bButtonState
0800022c  w    F .isr_vector	00000006 CAN1_SCE_IRQHandler
0800022c  w    F .isr_vector	00000006 FLASH_IRQHandler
080006e4  w    F .text	0000000a _exit
0800022c  w    F .isr_vector	00000006 DMA2_Stream4_IRQHandler
0800024c  w    F .isr_vector	00000006 BusFault_Handler
0800022c  w    F .isr_vector	00000006 USART1_IRQHandler
0800022c  w    F .isr_vector	00000006 OTG_FS_IRQHandler
0800022c  w    F .isr_vector	00000006 SPI3_IRQHandler
08000d8c g     F .text	00000024 Core_Start
0800022c  w    F .isr_vector	00000006 DMA1_Stream4_IRQHandler
0800022c  w    F .isr_vector	00000006 I2C1_ER_IRQHandler
080003b0 g     F .text	00000076 vLedSetValue
0800022c  w    F .isr_vector	00000006 DMA2_Stream6_IRQHandler
0800022c  w    F .isr_vector	00000006 DMA1_Stream3_IRQHandler



Disassembly of section .isr_vector:

08000000 <g_pfnVectors>:
 8000000:	00 00 02 20 89 01 00 08 35 02 00 08 3d 02 00 08     ... ....5...=...
 8000010:	45 02 00 08 4d 02 00 08 55 02 00 08 00 00 00 00     E...M...U.......
	...
 800002c:	5d 02 00 08 65 02 00 08 00 00 00 00 5f 09 00 08     ]...e......._...
 800003c:	f5 0d 00 08 2d 02 00 08 2d 02 00 08 2d 02 00 08     ....-...-...-...
 800004c:	2d 02 00 08 2d 02 00 08 2d 02 00 08 2d 02 00 08     -...-...-...-...
 800005c:	2d 02 00 08 2d 02 00 08 2d 02 00 08 2d 02 00 08     -...-...-...-...
 800006c:	2d 02 00 08 2d 02 00 08 2d 02 00 08 2d 02 00 08     -...-...-...-...
 800007c:	2d 02 00 08 2d 02 00 08 2d 02 00 08 2d 02 00 08     -...-...-...-...
 800008c:	2d 02 00 08 2d 02 00 08 2d 02 00 08 2d 02 00 08     -...-...-...-...
 800009c:	2d 02 00 08 2d 02 00 08 2d 02 00 08 2d 02 00 08     -...-...-...-...
 80000ac:	2d 02 00 08 2d 02 00 08 2d 02 00 08 2d 02 00 08     -...-...-...-...
 80000bc:	2d 02 00 08 2d 02 00 08 2d 02 00 08 2d 02 00 08     -...-...-...-...
 80000cc:	2d 02 00 08 2d 02 00 08 2d 02 00 08 2d 02 00 08     -...-...-...-...
 80000dc:	2d 02 00 08 2d 02 00 08 2d 02 00 08 2d 02 00 08     -...-...-...-...
 80000ec:	2d 02 00 08 2d 02 00 08 2d 02 00 08 2d 02 00 08     -...-...-...-...
 80000fc:	2d 02 00 08 2d 02 00 08 2d 02 00 08 2d 02 00 08     -...-...-...-...
 800010c:	2d 02 00 08 2d 02 00 08 2d 02 00 08 2d 02 00 08     -...-...-...-...
 800011c:	2d 02 00 08 2d 02 00 08 2d 02 00 08 2d 02 00 08     -...-...-...-...
 800012c:	2d 02 00 08 2d 02 00 08 2d 02 00 08 2d 02 00 08     -...-...-...-...
 800013c:	2d 02 00 08 2d 02 00 08 2d 02 00 08 2d 02 00 08     -...-...-...-...
 800014c:	2d 02 00 08 2d 02 00 08 2d 02 00 08 2d 02 00 08     -...-...-...-...
 800015c:	2d 02 00 08 2d 02 00 08 2d 02 00 08 2d 02 00 08     -...-...-...-...
 800016c:	2d 02 00 08 2d 02 00 08 2d 02 00 08 2d 02 00 08     -...-...-...-...
 800017c:	2d 02 00 08 2d 02 00 08 2d 02 00 08                 -...-...-...

08000188 <Reset_Handler>:
Reset_Handler():
/Users/felipeneves/Documents/Projects/Embedded/uLipeRTOS/Debug/../libs/CMSIS/src/startup_cm.c:217
}

// This is the place where Cortex-M core will go immediately after reset.
void __attribute__ ((section(".after_vectors")))
Reset_Handler(void)
{
 8000188:	b580      	push	{r7, lr}
 800018a:	b084      	sub	sp, #16
 800018c:	af00      	add	r7, sp, #0
 800018e:	f240 0304 	movw	r3, #4
 8000192:	f2c2 0300 	movt	r3, #8192	; 0x2000
 8000196:	60bb      	str	r3, [r7, #8]
 8000198:	f640 7320 	movw	r3, #3872	; 0xf20
 800019c:	f2c2 0300 	movt	r3, #8192	; 0x2000
 80001a0:	607b      	str	r3, [r7, #4]
bss_init():
/Users/felipeneves/Documents/Projects/Embedded/uLipeRTOS/Debug/../libs/CMSIS/src/startup_cm.c:118
__attribute__((always_inline))
bss_init(unsigned int* section_begin, unsigned int* section_end)
{
  // Iterate and clear word by word.
  // It is assumed that the pointers are word aligned.
  unsigned int *p = section_begin;
 80001a2:	68bb      	ldr	r3, [r7, #8]
 80001a4:	603b      	str	r3, [r7, #0]
 80001a6:	e007      	b.n	80001b8 <Reset_Handler+0x30>
/Users/felipeneves/Documents/Projects/Embedded/uLipeRTOS/Debug/../libs/CMSIS/src/startup_cm.c:120
  while (p < section_end)
    *p++ = 0;
 80001a8:	683b      	ldr	r3, [r7, #0]
 80001aa:	f04f 0200 	mov.w	r2, #0
 80001ae:	601a      	str	r2, [r3, #0]
 80001b0:	683b      	ldr	r3, [r7, #0]
 80001b2:	f103 0304 	add.w	r3, r3, #4
 80001b6:	603b      	str	r3, [r7, #0]
/Users/felipeneves/Documents/Projects/Embedded/uLipeRTOS/Debug/../libs/CMSIS/src/startup_cm.c:119
bss_init(unsigned int* section_begin, unsigned int* section_end)
{
  // Iterate and clear word by word.
  // It is assumed that the pointers are word aligned.
  unsigned int *p = section_begin;
  while (p < section_end)
 80001b8:	687a      	ldr	r2, [r7, #4]
 80001ba:	683b      	ldr	r3, [r7, #0]
 80001bc:	429a      	cmp	r2, r3
 80001be:	d8f3      	bhi.n	80001a8 <Reset_Handler+0x20>
Reset_Handler():
/Users/felipeneves/Documents/Projects/Embedded/uLipeRTOS/Debug/../libs/CMSIS/src/startup_cm.c:227
  // Zero fill the bss segment
  bss_init(&__bss_start__, &__bss_end__);

  // Call the standard library initialisation (mandatory, SystemInit()
  // and C++ static constructors are called from here).
  __libc_init_array();
 80001c0:	f000 fa20 	bl	8000604 <__libc_init_array>
/Users/felipeneves/Documents/Projects/Embedded/uLipeRTOS/Debug/../libs/CMSIS/src/startup_cm.c:230

  // Call the main entry point, and save the exit code.
  int r = main();
 80001c4:	f000 f9da 	bl	800057c <main>
 80001c8:	60f8      	str	r0, [r7, #12]
/Users/felipeneves/Documents/Projects/Embedded/uLipeRTOS/Debug/../libs/CMSIS/src/startup_cm.c:233

  // Run the static destructors.
  __libc_fini_array();
 80001ca:	f000 fa63 	bl	8000694 <__libc_fini_array>
/Users/felipeneves/Documents/Projects/Embedded/uLipeRTOS/Debug/../libs/CMSIS/src/startup_cm.c:238

  // On test platforms, like semihosting, this can be used to inform
  // the host on the test result.
  // On embedded platforms, usually reset the processor.
  _exit(r);
 80001ce:	68f8      	ldr	r0, [r7, #12]
 80001d0:	f000 fa88 	bl	80006e4 <_exit>

080001d4 <system_init>:
system_init():
/Users/felipeneves/Documents/Projects/Embedded/uLipeRTOS/Debug/../libs/CMSIS/src/startup_cm.c:248

// System initialisation, executed before constructors.
void
__attribute__((section(".after_vectors")))
system_init()
{
 80001d4:	b580      	push	{r7, lr}
 80001d6:	b084      	sub	sp, #16
 80001d8:	af00      	add	r7, sp, #0
 80001da:	f241 43e8 	movw	r3, #5352	; 0x14e8
 80001de:	f6c0 0300 	movt	r3, #2048	; 0x800
 80001e2:	60fb      	str	r3, [r7, #12]
 80001e4:	f240 0300 	movw	r3, #0
 80001e8:	f2c2 0300 	movt	r3, #8192	; 0x2000
 80001ec:	60bb      	str	r3, [r7, #8]
 80001ee:	f240 0304 	movw	r3, #4
 80001f2:	f2c2 0300 	movt	r3, #8192	; 0x2000
 80001f6:	607b      	str	r3, [r7, #4]
data_init():
/Users/felipeneves/Documents/Projects/Embedded/uLipeRTOS/Debug/../libs/CMSIS/src/startup_cm.c:105
data_init(unsigned int* from, unsigned int* section_begin,
    unsigned int* section_end)
{
  // Iterate and copy word by word.
  // It is assumed that the pointers are word aligned.
  unsigned int *p = section_begin;
 80001f8:	68bb      	ldr	r3, [r7, #8]
 80001fa:	603b      	str	r3, [r7, #0]
 80001fc:	e00b      	b.n	8000216 <system_init+0x42>
/Users/felipeneves/Documents/Projects/Embedded/uLipeRTOS/Debug/../libs/CMSIS/src/startup_cm.c:107
  while (p < section_end)
    *p++ = *from++;
 80001fe:	68fb      	ldr	r3, [r7, #12]
 8000200:	681a      	ldr	r2, [r3, #0]
 8000202:	683b      	ldr	r3, [r7, #0]
 8000204:	601a      	str	r2, [r3, #0]
 8000206:	683b      	ldr	r3, [r7, #0]
 8000208:	f103 0304 	add.w	r3, r3, #4
 800020c:	603b      	str	r3, [r7, #0]
 800020e:	68fb      	ldr	r3, [r7, #12]
 8000210:	f103 0304 	add.w	r3, r3, #4
 8000214:	60fb      	str	r3, [r7, #12]
/Users/felipeneves/Documents/Projects/Embedded/uLipeRTOS/Debug/../libs/CMSIS/src/startup_cm.c:106
    unsigned int* section_end)
{
  // Iterate and copy word by word.
  // It is assumed that the pointers are word aligned.
  unsigned int *p = section_begin;
  while (p < section_end)
 8000216:	687a      	ldr	r2, [r7, #4]
 8000218:	683b      	ldr	r3, [r7, #0]
 800021a:	429a      	cmp	r2, r3
 800021c:	d8ef      	bhi.n	80001fe <system_init+0x2a>
system_init():
/Users/felipeneves/Documents/Projects/Embedded/uLipeRTOS/Debug/../libs/CMSIS/src/startup_cm.c:256
  // so we must be sure it is executed somewhere.
  // (for example librdimon)
  data_init(&_sidata, &_sdata, &_edata);

  // Call the CSMSIS system initialisation routine
  SystemInit();
 800021e:	f000 fa67 	bl	80006f0 <SystemInit>
/Users/felipeneves/Documents/Projects/Embedded/uLipeRTOS/Debug/../libs/CMSIS/src/startup_cm.c:257
}
 8000222:	f107 0710 	add.w	r7, r7, #16
 8000226:	46bd      	mov	sp, r7
 8000228:	bd80      	pop	{r7, pc}
 800022a:	bf00      	nop

0800022c <ADC_IRQHandler>:
Default_Handler():
/Users/felipeneves/Documents/Projects/Embedded/uLipeRTOS/Debug/../libs/CMSIS/src/vectors_stm32f4xx.c:432
//
//*****************************************************************************

void __attribute__ ((section(".after_vectors")))
Default_Handler(void)
{
 800022c:	b480      	push	{r7}
 800022e:	af00      	add	r7, sp, #0
/Users/felipeneves/Documents/Projects/Embedded/uLipeRTOS/Debug/../libs/CMSIS/src/vectors_stm32f4xx.c:435
  while (1)
    {
    }
 8000230:	e7fe      	b.n	8000230 <ADC_IRQHandler+0x4>
DMA1_Stream3_IRQHandler():
 8000232:	bf00      	nop

08000234 <NMI_Handler>:
NMI_Handler():
/Users/felipeneves/Documents/Projects/Embedded/uLipeRTOS/Debug/../libs/CMSIS/src/vectors_stm32f4xx.c:444
// Default exception handlers. Override the ones here by defining your own
// handler routines in your application code.
//*****************************************************************************
void __attribute__ ((section(".after_vectors")))
NMI_Handler(void)
{
 8000234:	b480      	push	{r7}
 8000236:	af00      	add	r7, sp, #0
/Users/felipeneves/Documents/Projects/Embedded/uLipeRTOS/Debug/../libs/CMSIS/src/vectors_stm32f4xx.c:447
  while (1)
    {
    }
 8000238:	e7fe      	b.n	8000238 <NMI_Handler+0x4>
 800023a:	bf00      	nop

0800023c <HardFault_Handler>:
HardFault_Handler():
/Users/felipeneves/Documents/Projects/Embedded/uLipeRTOS/Debug/../libs/CMSIS/src/vectors_stm32f4xx.c:452
}

void __attribute__ ((section(".after_vectors")))
HardFault_Handler(void)
{
 800023c:	b480      	push	{r7}
 800023e:	af00      	add	r7, sp, #0
/Users/felipeneves/Documents/Projects/Embedded/uLipeRTOS/Debug/../libs/CMSIS/src/vectors_stm32f4xx.c:459


 while (1)
    {

    }
 8000240:	e7fe      	b.n	8000240 <HardFault_Handler+0x4>
 8000242:	bf00      	nop

08000244 <MemManage_Handler>:
MemManage_Handler():
/Users/felipeneves/Documents/Projects/Embedded/uLipeRTOS/Debug/../libs/CMSIS/src/vectors_stm32f4xx.c:464
}

void __attribute__ ((section(".after_vectors")))
MemManage_Handler(void)
{
 8000244:	b480      	push	{r7}
 8000246:	af00      	add	r7, sp, #0
/Users/felipeneves/Documents/Projects/Embedded/uLipeRTOS/Debug/../libs/CMSIS/src/vectors_stm32f4xx.c:467
  while (1)
    {
    }
 8000248:	e7fe      	b.n	8000248 <MemManage_Handler+0x4>
 800024a:	bf00      	nop

0800024c <BusFault_Handler>:
BusFault_Handler():
/Users/felipeneves/Documents/Projects/Embedded/uLipeRTOS/Debug/../libs/CMSIS/src/vectors_stm32f4xx.c:472
}

void __attribute__ ((section(".after_vectors")))
BusFault_Handler(void)
{
 800024c:	b480      	push	{r7}
 800024e:	af00      	add	r7, sp, #0
/Users/felipeneves/Documents/Projects/Embedded/uLipeRTOS/Debug/../libs/CMSIS/src/vectors_stm32f4xx.c:475
  while (1)
    {
    }
 8000250:	e7fe      	b.n	8000250 <BusFault_Handler+0x4>
 8000252:	bf00      	nop

08000254 <UsageFault_Handler>:
UsageFault_Handler():
/Users/felipeneves/Documents/Projects/Embedded/uLipeRTOS/Debug/../libs/CMSIS/src/vectors_stm32f4xx.c:480
}

void __attribute__ ((section(".after_vectors")))
UsageFault_Handler(void)
{
 8000254:	b480      	push	{r7}
 8000256:	af00      	add	r7, sp, #0
/Users/felipeneves/Documents/Projects/Embedded/uLipeRTOS/Debug/../libs/CMSIS/src/vectors_stm32f4xx.c:483
  while (1)
    {
    }
 8000258:	e7fe      	b.n	8000258 <UsageFault_Handler+0x4>
 800025a:	bf00      	nop

0800025c <SVC_Handler>:
SVC_Handler():
/Users/felipeneves/Documents/Projects/Embedded/uLipeRTOS/Debug/../libs/CMSIS/src/vectors_stm32f4xx.c:488
}

void __attribute__ ((section(".after_vectors")))
SVC_Handler(void)
{
 800025c:	b480      	push	{r7}
 800025e:	af00      	add	r7, sp, #0
/Users/felipeneves/Documents/Projects/Embedded/uLipeRTOS/Debug/../libs/CMSIS/src/vectors_stm32f4xx.c:491
  while (1)
    {
    }
 8000260:	e7fe      	b.n	8000260 <SVC_Handler+0x4>
 8000262:	bf00      	nop

08000264 <DebugMon_Handler>:
DebugMon_Handler():
/Users/felipeneves/Documents/Projects/Embedded/uLipeRTOS/Debug/../libs/CMSIS/src/vectors_stm32f4xx.c:496
}

void __attribute__ ((section(".after_vectors")))
DebugMon_Handler(void)
{
 8000264:	b480      	push	{r7}
 8000266:	af00      	add	r7, sp, #0
/Users/felipeneves/Documents/Projects/Embedded/uLipeRTOS/Debug/../libs/CMSIS/src/vectors_stm32f4xx.c:499
  while (1)
    {
    }
 8000268:	e7fe      	b.n	8000268 <DebugMon_Handler+0x4>
 800026a:	bf00      	nop
PendSV_Handler():
/Users/felipeneves/Documents/Projects/Embedded/uLipeRTOS/Debug/../libs/CMSIS/src/vectors_stm32f4xx.c:504
}

void __attribute__ ((section(".after_vectors")))
PendSV_Handler(void)
{
 800026c:	b480      	push	{r7}
 800026e:	af00      	add	r7, sp, #0
/Users/felipeneves/Documents/Projects/Embedded/uLipeRTOS/Debug/../libs/CMSIS/src/vectors_stm32f4xx.c:507
  while (1)
    {
    }
 8000270:	e7fe      	b.n	8000270 <DebugMon_Handler+0xc>
DebugMon_Handler():
 8000272:	bf00      	nop

Disassembly of section .text:

08000278 <vButtonTaskInit>:
vButtonTaskInit():
/Users/felipeneves/Documents/Projects/Embedded/uLipeRTOS/Debug/../src/ ButtonTask.c:43
		Ret  : N/A


 *************************************************************/
void vButtonTaskInit(void)
{
 8000278:	b480      	push	{r7}
 800027a:	af00      	add	r7, sp, #0
/Users/felipeneves/Documents/Projects/Embedded/uLipeRTOS/Debug/../src/ ButtonTask.c:48

	//Configure the GPIOS:

	//Enable clock for GPIOA:
	RCC->AHB1ENR |= 0x01;
 800027c:	f44f 5360 	mov.w	r3, #14336	; 0x3800
 8000280:	f2c4 0302 	movt	r3, #16386	; 0x4002
 8000284:	f44f 5260 	mov.w	r2, #14336	; 0x3800
 8000288:	f2c4 0202 	movt	r2, #16386	; 0x4002
 800028c:	6b12      	ldr	r2, [r2, #48]	; 0x30
 800028e:	f042 0201 	orr.w	r2, r2, #1
 8000292:	631a      	str	r2, [r3, #48]	; 0x30
/Users/felipeneves/Documents/Projects/Embedded/uLipeRTOS/Debug/../src/ ButtonTask.c:51

	//Configure data direction: (PD12 - 15, Output)
	GPIOA->MODER = 0x00000000;
 8000294:	f04f 0300 	mov.w	r3, #0
 8000298:	f2c4 0302 	movt	r3, #16386	; 0x4002
 800029c:	f04f 0200 	mov.w	r2, #0
 80002a0:	601a      	str	r2, [r3, #0]
/Users/felipeneves/Documents/Projects/Embedded/uLipeRTOS/Debug/../src/ ButtonTask.c:54

	//Configures Pulls(PD12 - 15, PullDown):
	GPIOA->PUPDR = 0x00000000;
 80002a2:	f04f 0300 	mov.w	r3, #0
 80002a6:	f2c4 0302 	movt	r3, #16386	; 0x4002
 80002aa:	f04f 0200 	mov.w	r2, #0
 80002ae:	60da      	str	r2, [r3, #12]
/Users/felipeneves/Documents/Projects/Embedded/uLipeRTOS/Debug/../src/ ButtonTask.c:58

	//Reset all leds:
	//GPIOA->ODR = 0x00000000;
}
 80002b0:	46bd      	mov	sp, r7
 80002b2:	bc80      	pop	{r7}
 80002b4:	4770      	bx	lr
 80002b6:	bf00      	nop

080002b8 <bButtonGet>:
bButtonGet():
/Users/felipeneves/Documents/Projects/Embedded/uLipeRTOS/Debug/../src/ ButtonTask.c:72
							 0xFF - Pressed


 *************************************************************/
uint8_t bButtonGet(void)
{
 80002b8:	b480      	push	{r7}
 80002ba:	af00      	add	r7, sp, #0
/Users/felipeneves/Documents/Projects/Embedded/uLipeRTOS/Debug/../src/ ButtonTask.c:74
	//return current button state
	return(bButtonState);
 80002bc:	f240 0304 	movw	r3, #4
 80002c0:	f2c2 0300 	movt	r3, #8192	; 0x2000
 80002c4:	781b      	ldrb	r3, [r3, #0]
/Users/felipeneves/Documents/Projects/Embedded/uLipeRTOS/Debug/../src/ ButtonTask.c:75
}
 80002c6:	4618      	mov	r0, r3
 80002c8:	46bd      	mov	sp, r7
 80002ca:	bc80      	pop	{r7}
 80002cc:	4770      	bx	lr
 80002ce:	bf00      	nop

080002d0 <vButtonMainTask>:
vButtonMainTask():
/Users/felipeneves/Documents/Projects/Embedded/uLipeRTOS/Debug/../src/ ButtonTask.c:88
		Ret  : N/A


 *************************************************************/
void vButtonMainTask(void *pTaskArgs)
{
 80002d0:	b580      	push	{r7, lr}
 80002d2:	b084      	sub	sp, #16
 80002d4:	af00      	add	r7, sp, #0
 80002d6:	6078      	str	r0, [r7, #4]
/Users/felipeneves/Documents/Projects/Embedded/uLipeRTOS/Debug/../src/ ButtonTask.c:90
	//Allocate a debounce variable:
	uint16_t wDebounce = 0;
 80002d8:	f04f 0300 	mov.w	r3, #0
 80002dc:	81fb      	strh	r3, [r7, #14]
/Users/felipeneves/Documents/Projects/Embedded/uLipeRTOS/Debug/../src/ ButtonTask.c:93

	//Allocate a temporary variable to buttons:
	uint8_t bCurButton = 0, bPrevButton = 0;
 80002de:	f04f 0300 	mov.w	r3, #0
 80002e2:	737b      	strb	r3, [r7, #13]
 80002e4:	f04f 0300 	mov.w	r3, #0
 80002e8:	733b      	strb	r3, [r7, #12]
/Users/felipeneves/Documents/Projects/Embedded/uLipeRTOS/Debug/../src/ ButtonTask.c:96

	//Initialize the task:
	vButtonTaskInit();
 80002ea:	f7ff ffc5 	bl	8000278 <vButtonTaskInit>
/Users/felipeneves/Documents/Projects/Embedded/uLipeRTOS/Debug/../src/ ButtonTask.c:102

	//Every task is a infinite loop
	while(1)
	{
		//scan the button:
		bPrevButton = (uint8_t) (GPIOA->IDR & 0x01);
 80002ee:	f04f 0300 	mov.w	r3, #0
 80002f2:	f2c4 0302 	movt	r3, #16386	; 0x4002
 80002f6:	691b      	ldr	r3, [r3, #16]
 80002f8:	b2db      	uxtb	r3, r3
 80002fa:	f003 0301 	and.w	r3, r3, #1
 80002fe:	733b      	strb	r3, [r7, #12]
/Users/felipeneves/Documents/Projects/Embedded/uLipeRTOS/Debug/../src/ ButtonTask.c:105

		//Wait a delay:
		wDebounce = 0xFFFF;
 8000300:	f64f 73ff 	movw	r3, #65535	; 0xffff
 8000304:	81fb      	strh	r3, [r7, #14]
/Users/felipeneves/Documents/Projects/Embedded/uLipeRTOS/Debug/../src/ ButtonTask.c:108

		//Loop it!
		while(wDebounce)
 8000306:	e003      	b.n	8000310 <vButtonMainTask+0x40>
/Users/felipeneves/Documents/Projects/Embedded/uLipeRTOS/Debug/../src/ ButtonTask.c:110
		{
			wDebounce--;
 8000308:	89fb      	ldrh	r3, [r7, #14]
 800030a:	f103 33ff 	add.w	r3, r3, #4294967295	; 0xffffffff
 800030e:	81fb      	strh	r3, [r7, #14]
/Users/felipeneves/Documents/Projects/Embedded/uLipeRTOS/Debug/../src/ ButtonTask.c:108

		//Wait a delay:
		wDebounce = 0xFFFF;

		//Loop it!
		while(wDebounce)
 8000310:	89fb      	ldrh	r3, [r7, #14]
 8000312:	2b00      	cmp	r3, #0
 8000314:	d1f8      	bne.n	8000308 <vButtonMainTask+0x38>
/Users/felipeneves/Documents/Projects/Embedded/uLipeRTOS/Debug/../src/ ButtonTask.c:114
		{
			wDebounce--;
		}

		//Rescan the button:
		bCurButton = (uint8_t) (GPIOA->IDR & 0x01);
 8000316:	f04f 0300 	mov.w	r3, #0
 800031a:	f2c4 0302 	movt	r3, #16386	; 0x4002
 800031e:	691b      	ldr	r3, [r3, #16]
 8000320:	b2db      	uxtb	r3, r3
 8000322:	f003 0301 	and.w	r3, r3, #1
 8000326:	737b      	strb	r3, [r7, #13]
/Users/felipeneves/Documents/Projects/Embedded/uLipeRTOS/Debug/../src/ ButtonTask.c:117

		//check if not a noise
		if(bCurButton == bPrevButton)
 8000328:	7b7a      	ldrb	r2, [r7, #13]
 800032a:	7b3b      	ldrb	r3, [r7, #12]
 800032c:	429a      	cmp	r2, r3
 800032e:	d112      	bne.n	8000356 <vButtonMainTask+0x86>
/Users/felipeneves/Documents/Projects/Embedded/uLipeRTOS/Debug/../src/ ButtonTask.c:120
		{
			//if not, check state:
			if(bCurButton)
 8000330:	7b7b      	ldrb	r3, [r7, #13]
 8000332:	2b00      	cmp	r3, #0
 8000334:	d007      	beq.n	8000346 <vButtonMainTask+0x76>
/Users/felipeneves/Documents/Projects/Embedded/uLipeRTOS/Debug/../src/ ButtonTask.c:122
			{
				bButtonState = tePRESSED;
 8000336:	f240 0304 	movw	r3, #4
 800033a:	f2c2 0300 	movt	r3, #8192	; 0x2000
 800033e:	f04f 0201 	mov.w	r2, #1
 8000342:	701a      	strb	r2, [r3, #0]
/Users/felipeneves/Documents/Projects/Embedded/uLipeRTOS/Debug/../src/ ButtonTask.c:137
		{
			//Reset the variables:
			bPrevButton = 0;
			bCurButton  = 0;
		}
	}
 8000344:	e7d3      	b.n	80002ee <vButtonMainTask+0x1e>
/Users/felipeneves/Documents/Projects/Embedded/uLipeRTOS/Debug/../src/ ButtonTask.c:126
			{
				bButtonState = tePRESSED;
			}
			else
			{
				bButtonState = teRELEASED;
 8000346:	f240 0304 	movw	r3, #4
 800034a:	f2c2 0300 	movt	r3, #8192	; 0x2000
 800034e:	f04f 0200 	mov.w	r2, #0
 8000352:	701a      	strb	r2, [r3, #0]
/Users/felipeneves/Documents/Projects/Embedded/uLipeRTOS/Debug/../src/ ButtonTask.c:137
		{
			//Reset the variables:
			bPrevButton = 0;
			bCurButton  = 0;
		}
	}
 8000354:	e7cb      	b.n	80002ee <vButtonMainTask+0x1e>
/Users/felipeneves/Documents/Projects/Embedded/uLipeRTOS/Debug/../src/ ButtonTask.c:134
		}
		//if a noise, do nothing
		else
		{
			//Reset the variables:
			bPrevButton = 0;
 8000356:	f04f 0300 	mov.w	r3, #0
 800035a:	733b      	strb	r3, [r7, #12]
/Users/felipeneves/Documents/Projects/Embedded/uLipeRTOS/Debug/../src/ ButtonTask.c:135
			bCurButton  = 0;
 800035c:	f04f 0300 	mov.w	r3, #0
 8000360:	737b      	strb	r3, [r7, #13]
/Users/felipeneves/Documents/Projects/Embedded/uLipeRTOS/Debug/../src/ ButtonTask.c:137
		}
	}
 8000362:	e7c4      	b.n	80002ee <vButtonMainTask+0x1e>

08000364 <vLedTaskInit>:
vLedTaskInit():
/Users/felipeneves/Documents/Projects/Embedded/uLipeRTOS/Debug/../src/LedTask.c:47
		Ret  : N/A


 *************************************************************/
void vLedTaskInit(void)
{
 8000364:	b480      	push	{r7}
 8000366:	af00      	add	r7, sp, #0
/Users/felipeneves/Documents/Projects/Embedded/uLipeRTOS/Debug/../src/LedTask.c:52

	//Configure the GPIOS:

	//Enable clock for GPIOD:
	RCC->AHB1ENR |= 0x08;
 8000368:	f44f 5360 	mov.w	r3, #14336	; 0x3800
 800036c:	f2c4 0302 	movt	r3, #16386	; 0x4002
 8000370:	f44f 5260 	mov.w	r2, #14336	; 0x3800
 8000374:	f2c4 0202 	movt	r2, #16386	; 0x4002
 8000378:	6b12      	ldr	r2, [r2, #48]	; 0x30
 800037a:	f042 0208 	orr.w	r2, r2, #8
 800037e:	631a      	str	r2, [r3, #48]	; 0x30
/Users/felipeneves/Documents/Projects/Embedded/uLipeRTOS/Debug/../src/LedTask.c:55

	//Configure data direction: (PD12 - 15, Output)
	GPIOD->MODER = 0x55000000;
 8000380:	f44f 6340 	mov.w	r3, #3072	; 0xc00
 8000384:	f2c4 0302 	movt	r3, #16386	; 0x4002
 8000388:	f04f 42aa 	mov.w	r2, #1426063360	; 0x55000000
 800038c:	601a      	str	r2, [r3, #0]
/Users/felipeneves/Documents/Projects/Embedded/uLipeRTOS/Debug/../src/LedTask.c:58

	//Configures Pulls(PD12 - 15, PullDown):
	GPIOD->PUPDR = 0xAA000000;
 800038e:	f44f 6340 	mov.w	r3, #3072	; 0xc00
 8000392:	f2c4 0302 	movt	r3, #16386	; 0x4002
 8000396:	f04f 422a 	mov.w	r2, #2852126720	; 0xaa000000
 800039a:	60da      	str	r2, [r3, #12]
/Users/felipeneves/Documents/Projects/Embedded/uLipeRTOS/Debug/../src/LedTask.c:61

	//Reset all leds:
	GPIOD->ODR = 0x00000000;
 800039c:	f44f 6340 	mov.w	r3, #3072	; 0xc00
 80003a0:	f2c4 0302 	movt	r3, #16386	; 0x4002
 80003a4:	f04f 0200 	mov.w	r2, #0
 80003a8:	615a      	str	r2, [r3, #20]
/Users/felipeneves/Documents/Projects/Embedded/uLipeRTOS/Debug/../src/LedTask.c:63

}
 80003aa:	46bd      	mov	sp, r7
 80003ac:	bc80      	pop	{r7}
 80003ae:	4770      	bx	lr

080003b0 <vLedSetValue>:
vLedSetValue():
/Users/felipeneves/Documents/Projects/Embedded/uLipeRTOS/Debug/../src/LedTask.c:80
		Ret  : N/A


 *************************************************************/
void vLedSetValue(teLedState eLedState, teLedNumber eLedNumber)
{
 80003b0:	b480      	push	{r7}
 80003b2:	b083      	sub	sp, #12
 80003b4:	af00      	add	r7, sp, #0
 80003b6:	4602      	mov	r2, r0
 80003b8:	460b      	mov	r3, r1
 80003ba:	71fa      	strb	r2, [r7, #7]
 80003bc:	71bb      	strb	r3, [r7, #6]
/Users/felipeneves/Documents/Projects/Embedded/uLipeRTOS/Debug/../src/LedTask.c:91
		//do nothing and return:
		return;
	}

	//check if leds exists:
	if(eLedNumber >= teMAX_LEDS)
 80003be:	79bb      	ldrb	r3, [r7, #6]
 80003c0:	2b0f      	cmp	r3, #15
 80003c2:	d82a      	bhi.n	800041a <vLedSetValue+0x6a>
/Users/felipeneves/Documents/Projects/Embedded/uLipeRTOS/Debug/../src/LedTask.c:98
		//do nothing and return
		return;
	}

	//select led function:
	switch(eLedState)
 80003c4:	79fb      	ldrb	r3, [r7, #7]
 80003c6:	2b00      	cmp	r3, #0
 80003c8:	d012      	beq.n	80003f0 <vLedSetValue+0x40>
 80003ca:	2b01      	cmp	r3, #1
 80003cc:	d123      	bne.n	8000416 <vLedSetValue+0x66>
/Users/felipeneves/Documents/Projects/Embedded/uLipeRTOS/Debug/../src/LedTask.c:102
	{
	case teON:
		//Turn On desired led:
		GPIOD->ODR |= (1 << eLedNumber);
 80003ce:	f44f 6340 	mov.w	r3, #3072	; 0xc00
 80003d2:	f2c4 0302 	movt	r3, #16386	; 0x4002
 80003d6:	f44f 6240 	mov.w	r2, #3072	; 0xc00
 80003da:	f2c4 0202 	movt	r2, #16386	; 0x4002
 80003de:	6951      	ldr	r1, [r2, #20]
 80003e0:	79ba      	ldrb	r2, [r7, #6]
 80003e2:	f04f 0001 	mov.w	r0, #1
 80003e6:	fa00 f202 	lsl.w	r2, r0, r2
 80003ea:	430a      	orrs	r2, r1
 80003ec:	615a      	str	r2, [r3, #20]
/Users/felipeneves/Documents/Projects/Embedded/uLipeRTOS/Debug/../src/LedTask.c:103
	break;
 80003ee:	e015      	b.n	800041c <vLedSetValue+0x6c>
/Users/felipeneves/Documents/Projects/Embedded/uLipeRTOS/Debug/../src/LedTask.c:107

	case teOFF:
		//Turn Off desired led:
		GPIOD->ODR &= ~(1 << eLedNumber);
 80003f0:	f44f 6340 	mov.w	r3, #3072	; 0xc00
 80003f4:	f2c4 0302 	movt	r3, #16386	; 0x4002
 80003f8:	f44f 6240 	mov.w	r2, #3072	; 0xc00
 80003fc:	f2c4 0202 	movt	r2, #16386	; 0x4002
 8000400:	6951      	ldr	r1, [r2, #20]
 8000402:	79ba      	ldrb	r2, [r7, #6]
 8000404:	f04f 0001 	mov.w	r0, #1
 8000408:	fa00 f202 	lsl.w	r2, r0, r2
 800040c:	ea6f 0202 	mvn.w	r2, r2
 8000410:	400a      	ands	r2, r1
 8000412:	615a      	str	r2, [r3, #20]
/Users/felipeneves/Documents/Projects/Embedded/uLipeRTOS/Debug/../src/LedTask.c:108
	break;
 8000414:	e002      	b.n	800041c <vLedSetValue+0x6c>
/Users/felipeneves/Documents/Projects/Embedded/uLipeRTOS/Debug/../src/LedTask.c:111

	default:
	break;
 8000416:	bf00      	nop
 8000418:	e000      	b.n	800041c <vLedSetValue+0x6c>
/Users/felipeneves/Documents/Projects/Embedded/uLipeRTOS/Debug/../src/LedTask.c:94

	//check if leds exists:
	if(eLedNumber >= teMAX_LEDS)
	{
		//do nothing and return
		return;
 800041a:	bf00      	nop
/Users/felipeneves/Documents/Projects/Embedded/uLipeRTOS/Debug/../src/LedTask.c:114

	default:
	break;
	}

}
 800041c:	f107 070c 	add.w	r7, r7, #12
 8000420:	46bd      	mov	sp, r7
 8000422:	bc80      	pop	{r7}
 8000424:	4770      	bx	lr
 8000426:	bf00      	nop

08000428 <vLedMainTask>:
vLedMainTask():
/Users/felipeneves/Documents/Projects/Embedded/uLipeRTOS/Debug/../src/LedTask.c:150

		Ret  : N/A

 *************************************************************/
void vLedMainTask(void *pvTaskArgs)
{
 8000428:	b580      	push	{r7, lr}
 800042a:	b084      	sub	sp, #16
 800042c:	af00      	add	r7, sp, #0
 800042e:	6078      	str	r0, [r7, #4]
/Users/felipeneves/Documents/Projects/Embedded/uLipeRTOS/Debug/../src/LedTask.c:152
	//Allocates a delay register:
	uint16_t wDelay = 0;
 8000430:	f04f 0300 	mov.w	r3, #0
 8000434:	81fb      	strh	r3, [r7, #14]
/Users/felipeneves/Documents/Projects/Embedded/uLipeRTOS/Debug/../src/LedTask.c:155

	//Initialize the leds task
	vLedTaskInit();
 8000436:	f7ff ff95 	bl	8000364 <vLedTaskInit>
 800043a:	e000      	b.n	800043e <vLedMainTask+0x16>
/Users/felipeneves/Documents/Projects/Embedded/uLipeRTOS/Debug/../src/LedTask.c:192

		  vLedSetValue(teOFF, teLED4);
		  for(wDelay = 0; wDelay < LED_DELAY_SIZE; wDelay++);

	  }
	}
 800043c:	bf00      	nop
/Users/felipeneves/Documents/Projects/Embedded/uLipeRTOS/Debug/../src/LedTask.c:162
	//Every task is a infinite loop
	while(1)
	{

	  //check if the button is pressed:
	  if(tePRESSED == bButtonGet())
 800043e:	f7ff ff3b 	bl	80002b8 <bButtonGet>
 8000442:	4603      	mov	r3, r0
 8000444:	2b01      	cmp	r3, #1
 8000446:	d1f9      	bne.n	800043c <vLedMainTask+0x14>
/Users/felipeneves/Documents/Projects/Embedded/uLipeRTOS/Debug/../src/LedTask.c:165
	  {
		  //Set all leds and wait a while
		  vLedSetValue(teON, teLED1);
 8000448:	f04f 0001 	mov.w	r0, #1
 800044c:	f04f 010c 	mov.w	r1, #12
 8000450:	f7ff ffae 	bl	80003b0 <vLedSetValue>
/Users/felipeneves/Documents/Projects/Embedded/uLipeRTOS/Debug/../src/LedTask.c:166
		  for(wDelay = 0; wDelay < LED_DELAY_SIZE; wDelay++);
 8000454:	f04f 0300 	mov.w	r3, #0
 8000458:	81fb      	strh	r3, [r7, #14]
 800045a:	e003      	b.n	8000464 <vLedMainTask+0x3c>
 800045c:	89fb      	ldrh	r3, [r7, #14]
 800045e:	f103 0301 	add.w	r3, r3, #1
 8000462:	81fb      	strh	r3, [r7, #14]
 8000464:	89fa      	ldrh	r2, [r7, #14]
 8000466:	f240 73ff 	movw	r3, #2047	; 0x7ff
 800046a:	429a      	cmp	r2, r3
 800046c:	d9f6      	bls.n	800045c <vLedMainTask+0x34>
/Users/felipeneves/Documents/Projects/Embedded/uLipeRTOS/Debug/../src/LedTask.c:168

		  vLedSetValue(teON, teLED2);
 800046e:	f04f 0001 	mov.w	r0, #1
 8000472:	f04f 010d 	mov.w	r1, #13
 8000476:	f7ff ff9b 	bl	80003b0 <vLedSetValue>
/Users/felipeneves/Documents/Projects/Embedded/uLipeRTOS/Debug/../src/LedTask.c:169
		  for(wDelay = 0; wDelay < LED_DELAY_SIZE; wDelay++);
 800047a:	f04f 0300 	mov.w	r3, #0
 800047e:	81fb      	strh	r3, [r7, #14]
 8000480:	e003      	b.n	800048a <vLedMainTask+0x62>
 8000482:	89fb      	ldrh	r3, [r7, #14]
 8000484:	f103 0301 	add.w	r3, r3, #1
 8000488:	81fb      	strh	r3, [r7, #14]
 800048a:	89fa      	ldrh	r2, [r7, #14]
 800048c:	f240 73ff 	movw	r3, #2047	; 0x7ff
 8000490:	429a      	cmp	r2, r3
 8000492:	d9f6      	bls.n	8000482 <vLedMainTask+0x5a>
/Users/felipeneves/Documents/Projects/Embedded/uLipeRTOS/Debug/../src/LedTask.c:171

		  vLedSetValue(teON, teLED3);
 8000494:	f04f 0001 	mov.w	r0, #1
 8000498:	f04f 010e 	mov.w	r1, #14
 800049c:	f7ff ff88 	bl	80003b0 <vLedSetValue>
/Users/felipeneves/Documents/Projects/Embedded/uLipeRTOS/Debug/../src/LedTask.c:172
		  for(wDelay = 0; wDelay < LED_DELAY_SIZE; wDelay++);
 80004a0:	f04f 0300 	mov.w	r3, #0
 80004a4:	81fb      	strh	r3, [r7, #14]
 80004a6:	e003      	b.n	80004b0 <vLedMainTask+0x88>
 80004a8:	89fb      	ldrh	r3, [r7, #14]
 80004aa:	f103 0301 	add.w	r3, r3, #1
 80004ae:	81fb      	strh	r3, [r7, #14]
 80004b0:	89fa      	ldrh	r2, [r7, #14]
 80004b2:	f240 73ff 	movw	r3, #2047	; 0x7ff
 80004b6:	429a      	cmp	r2, r3
 80004b8:	d9f6      	bls.n	80004a8 <vLedMainTask+0x80>
/Users/felipeneves/Documents/Projects/Embedded/uLipeRTOS/Debug/../src/LedTask.c:174

		  vLedSetValue(teON, teLED4);
 80004ba:	f04f 0001 	mov.w	r0, #1
 80004be:	f04f 010f 	mov.w	r1, #15
 80004c2:	f7ff ff75 	bl	80003b0 <vLedSetValue>
/Users/felipeneves/Documents/Projects/Embedded/uLipeRTOS/Debug/../src/LedTask.c:175
		  for(wDelay = 0; wDelay < LED_DELAY_SIZE; wDelay++);
 80004c6:	f04f 0300 	mov.w	r3, #0
 80004ca:	81fb      	strh	r3, [r7, #14]
 80004cc:	e003      	b.n	80004d6 <vLedMainTask+0xae>
 80004ce:	89fb      	ldrh	r3, [r7, #14]
 80004d0:	f103 0301 	add.w	r3, r3, #1
 80004d4:	81fb      	strh	r3, [r7, #14]
 80004d6:	89fa      	ldrh	r2, [r7, #14]
 80004d8:	f240 73ff 	movw	r3, #2047	; 0x7ff
 80004dc:	429a      	cmp	r2, r3
 80004de:	d9f6      	bls.n	80004ce <vLedMainTask+0xa6>
/Users/felipeneves/Documents/Projects/Embedded/uLipeRTOS/Debug/../src/LedTask.c:179


		  //clear all leds and wait
		  vLedSetValue(teOFF, teLED1);
 80004e0:	f04f 0000 	mov.w	r0, #0
 80004e4:	f04f 010c 	mov.w	r1, #12
 80004e8:	f7ff ff62 	bl	80003b0 <vLedSetValue>
/Users/felipeneves/Documents/Projects/Embedded/uLipeRTOS/Debug/../src/LedTask.c:180
		  for(wDelay = 0; wDelay < LED_DELAY_SIZE; wDelay++);
 80004ec:	f04f 0300 	mov.w	r3, #0
 80004f0:	81fb      	strh	r3, [r7, #14]
 80004f2:	e003      	b.n	80004fc <vLedMainTask+0xd4>
 80004f4:	89fb      	ldrh	r3, [r7, #14]
 80004f6:	f103 0301 	add.w	r3, r3, #1
 80004fa:	81fb      	strh	r3, [r7, #14]
 80004fc:	89fa      	ldrh	r2, [r7, #14]
 80004fe:	f240 73ff 	movw	r3, #2047	; 0x7ff
 8000502:	429a      	cmp	r2, r3
 8000504:	d9f6      	bls.n	80004f4 <vLedMainTask+0xcc>
/Users/felipeneves/Documents/Projects/Embedded/uLipeRTOS/Debug/../src/LedTask.c:182

		  vLedSetValue(teOFF, teLED2);
 8000506:	f04f 0000 	mov.w	r0, #0
 800050a:	f04f 010d 	mov.w	r1, #13
 800050e:	f7ff ff4f 	bl	80003b0 <vLedSetValue>
/Users/felipeneves/Documents/Projects/Embedded/uLipeRTOS/Debug/../src/LedTask.c:183
		  for(wDelay = 0; wDelay < LED_DELAY_SIZE; wDelay++);
 8000512:	f04f 0300 	mov.w	r3, #0
 8000516:	81fb      	strh	r3, [r7, #14]
 8000518:	e003      	b.n	8000522 <vLedMainTask+0xfa>
 800051a:	89fb      	ldrh	r3, [r7, #14]
 800051c:	f103 0301 	add.w	r3, r3, #1
 8000520:	81fb      	strh	r3, [r7, #14]
 8000522:	89fa      	ldrh	r2, [r7, #14]
 8000524:	f240 73ff 	movw	r3, #2047	; 0x7ff
 8000528:	429a      	cmp	r2, r3
 800052a:	d9f6      	bls.n	800051a <vLedMainTask+0xf2>
/Users/felipeneves/Documents/Projects/Embedded/uLipeRTOS/Debug/../src/LedTask.c:185

		  vLedSetValue(teOFF, teLED3);
 800052c:	f04f 0000 	mov.w	r0, #0
 8000530:	f04f 010e 	mov.w	r1, #14
 8000534:	f7ff ff3c 	bl	80003b0 <vLedSetValue>
/Users/felipeneves/Documents/Projects/Embedded/uLipeRTOS/Debug/../src/LedTask.c:186
		  for(wDelay = 0; wDelay < LED_DELAY_SIZE; wDelay++);
 8000538:	f04f 0300 	mov.w	r3, #0
 800053c:	81fb      	strh	r3, [r7, #14]
 800053e:	e003      	b.n	8000548 <vLedMainTask+0x120>
 8000540:	89fb      	ldrh	r3, [r7, #14]
 8000542:	f103 0301 	add.w	r3, r3, #1
 8000546:	81fb      	strh	r3, [r7, #14]
 8000548:	89fa      	ldrh	r2, [r7, #14]
 800054a:	f240 73ff 	movw	r3, #2047	; 0x7ff
 800054e:	429a      	cmp	r2, r3
 8000550:	d9f6      	bls.n	8000540 <vLedMainTask+0x118>
/Users/felipeneves/Documents/Projects/Embedded/uLipeRTOS/Debug/../src/LedTask.c:188

		  vLedSetValue(teOFF, teLED4);
 8000552:	f04f 0000 	mov.w	r0, #0
 8000556:	f04f 010f 	mov.w	r1, #15
 800055a:	f7ff ff29 	bl	80003b0 <vLedSetValue>
/Users/felipeneves/Documents/Projects/Embedded/uLipeRTOS/Debug/../src/LedTask.c:189
		  for(wDelay = 0; wDelay < LED_DELAY_SIZE; wDelay++);
 800055e:	f04f 0300 	mov.w	r3, #0
 8000562:	81fb      	strh	r3, [r7, #14]
 8000564:	e003      	b.n	800056e <vLedMainTask+0x146>
 8000566:	89fb      	ldrh	r3, [r7, #14]
 8000568:	f103 0301 	add.w	r3, r3, #1
 800056c:	81fb      	strh	r3, [r7, #14]
 800056e:	89fa      	ldrh	r2, [r7, #14]
 8000570:	f240 73ff 	movw	r3, #2047	; 0x7ff
 8000574:	429a      	cmp	r2, r3
 8000576:	d9f6      	bls.n	8000566 <vLedMainTask+0x13e>
/Users/felipeneves/Documents/Projects/Embedded/uLipeRTOS/Debug/../src/LedTask.c:192

	  }
	}
 8000578:	e760      	b.n	800043c <vLedMainTask+0x14>
 800057a:	bf00      	nop

0800057c <main>:
main():
/Users/felipeneves/Documents/Projects/Embedded/uLipeRTOS/Debug/../src/main.c:13
//ButtonTask includes:
#include "ButtonTask.h"


int main(void)
{
 800057c:	b580      	push	{r7, lr}
 800057e:	b084      	sub	sp, #16
 8000580:	af02      	add	r7, sp, #8
/Users/felipeneves/Documents/Projects/Embedded/uLipeRTOS/Debug/../src/main.c:15
	//Error variable:
	uint8_t bErr = OS_OK;
 8000582:	f04f 0300 	mov.w	r3, #0
 8000586:	71fb      	strb	r3, [r7, #7]
/Users/felipeneves/Documents/Projects/Embedded/uLipeRTOS/Debug/../src/main.c:19


	//Initialize the kernel objects:
	bErr = Core_Init();
 8000588:	f000 fbca 	bl	8000d20 <Core_Init>
 800058c:	4603      	mov	r3, r0
 800058e:	71fb      	strb	r3, [r7, #7]
/Users/felipeneves/Documents/Projects/Embedded/uLipeRTOS/Debug/../src/main.c:22

	//check if all gone well:
	if(OS_OK != bErr)
 8000590:	79fb      	ldrb	r3, [r7, #7]
 8000592:	2b00      	cmp	r3, #0
 8000594:	d000      	beq.n	8000598 <main+0x1c>
/Users/felipeneves/Documents/Projects/Embedded/uLipeRTOS/Debug/../src/main.c:25
	{
		//traps
		while(1);
 8000596:	e7fe      	b.n	8000596 <main+0x1a>
/Users/felipeneves/Documents/Projects/Embedded/uLipeRTOS/Debug/../src/main.c:29
	}

	//Install led tasks:
	bErr = Task_Create	((taskptr_t *) &vLedMainTask,
 8000598:	f241 33bc 	movw	r3, #5052	; 0x13bc
 800059c:	f6c0 0300 	movt	r3, #2048	; 0x800
 80005a0:	9300      	str	r3, [sp, #0]
 80005a2:	f240 4029 	movw	r0, #1065	; 0x429
 80005a6:	f6c0 0000 	movt	r0, #2048	; 0x800
 80005aa:	f240 1118 	movw	r1, #280	; 0x118
 80005ae:	f2c2 0100 	movt	r1, #8192	; 0x2000
 80005b2:	f44f 7280 	mov.w	r2, #256	; 0x100
 80005b6:	f04f 030a 	mov.w	r3, #10
 80005ba:	f000 fcff 	bl	8000fbc <Task_Create>
 80005be:	4603      	mov	r3, r0
 80005c0:	71fb      	strb	r3, [r7, #7]
/Users/felipeneves/Documents/Projects/Embedded/uLipeRTOS/Debug/../src/main.c:36
						 sizeof(axLedTaskStack),
						 10,
						 (os_taskname_t *)"LedTask");

	//check if all gone well:
	if(OS_OK != bErr)
 80005c2:	79fb      	ldrb	r3, [r7, #7]
 80005c4:	2b00      	cmp	r3, #0
 80005c6:	d000      	beq.n	80005ca <main+0x4e>
/Users/felipeneves/Documents/Projects/Embedded/uLipeRTOS/Debug/../src/main.c:39
	{
		//traps
		while(1);
 80005c8:	e7fe      	b.n	80005c8 <main+0x4c>
/Users/felipeneves/Documents/Projects/Embedded/uLipeRTOS/Debug/../src/main.c:43
	}

	//Install button task:
	bErr = Task_Create	((taskptr_t *) &vButtonMainTask,
 80005ca:	f241 33c4 	movw	r3, #5060	; 0x13c4
 80005ce:	f6c0 0300 	movt	r3, #2048	; 0x800
 80005d2:	9300      	str	r3, [sp, #0]
 80005d4:	f240 20d1 	movw	r0, #721	; 0x2d1
 80005d8:	f6c0 0000 	movt	r0, #2048	; 0x800
 80005dc:	f240 0118 	movw	r1, #24
 80005e0:	f2c2 0100 	movt	r1, #8192	; 0x2000
 80005e4:	f44f 7280 	mov.w	r2, #256	; 0x100
 80005e8:	f04f 0309 	mov.w	r3, #9
 80005ec:	f000 fce6 	bl	8000fbc <Task_Create>
 80005f0:	4603      	mov	r3, r0
 80005f2:	71fb      	strb	r3, [r7, #7]
/Users/felipeneves/Documents/Projects/Embedded/uLipeRTOS/Debug/../src/main.c:50
						 sizeof(axButtonTaskStack),
						 9,
						 (os_taskname_t *)"ButtonTask");

	//check if all gone well:
	if(OS_OK != bErr)
 80005f4:	79fb      	ldrb	r3, [r7, #7]
 80005f6:	2b00      	cmp	r3, #0
 80005f8:	d000      	beq.n	80005fc <main+0x80>
/Users/felipeneves/Documents/Projects/Embedded/uLipeRTOS/Debug/../src/main.c:53
	{
		//traps
		while(1);
 80005fa:	e7fe      	b.n	80005fa <main+0x7e>
/Users/felipeneves/Documents/Projects/Embedded/uLipeRTOS/Debug/../src/main.c:57
	}

	//Then, start the kernel:
	Core_Start();
 80005fc:	f000 fbc6 	bl	8000d8c <Core_Start>
/Users/felipeneves/Documents/Projects/Embedded/uLipeRTOS/Debug/../src/main.c:60


	while (1);
 8000600:	e7fe      	b.n	8000600 <main+0x84>
 8000602:	bf00      	nop

08000604 <__libc_init_array>:
__libc_init_array():
/Users/felipeneves/Documents/Projects/Embedded/uLipeRTOS/Debug/../libs/CMSIS/src/startup_cm.c:179
(*__fini_array_end[])(void) __attribute__((weak));

// Iterate over all the preinit/init routines.
inline void
__libc_init_array(void)
{
 8000604:	b580      	push	{r7, lr}
 8000606:	b082      	sub	sp, #8
 8000608:	af00      	add	r7, sp, #0
/Users/felipeneves/Documents/Projects/Embedded/uLipeRTOS/Debug/../libs/CMSIS/src/startup_cm.c:183
  size_t count;
  size_t i;

  count = __preinit_array_end - __preinit_array_start;
 800060a:	f240 2278 	movw	r2, #632	; 0x278
 800060e:	f6c0 0200 	movt	r2, #2048	; 0x800
 8000612:	f240 2374 	movw	r3, #628	; 0x274
 8000616:	f6c0 0300 	movt	r3, #2048	; 0x800
 800061a:	1ad3      	subs	r3, r2, r3
 800061c:	ea4f 03a3 	mov.w	r3, r3, asr #2
 8000620:	603b      	str	r3, [r7, #0]
/Users/felipeneves/Documents/Projects/Embedded/uLipeRTOS/Debug/../libs/CMSIS/src/startup_cm.c:184
  for (i = 0; i < count; i++)
 8000622:	f04f 0300 	mov.w	r3, #0
 8000626:	607b      	str	r3, [r7, #4]
 8000628:	e00b      	b.n	8000642 <__libc_init_array+0x3e>
/Users/felipeneves/Documents/Projects/Embedded/uLipeRTOS/Debug/../libs/CMSIS/src/startup_cm.c:185
    __preinit_array_start[i]();
 800062a:	f240 2374 	movw	r3, #628	; 0x274
 800062e:	f6c0 0300 	movt	r3, #2048	; 0x800
 8000632:	687a      	ldr	r2, [r7, #4]
 8000634:	f853 3022 	ldr.w	r3, [r3, r2, lsl #2]
 8000638:	4798      	blx	r3
/Users/felipeneves/Documents/Projects/Embedded/uLipeRTOS/Debug/../libs/CMSIS/src/startup_cm.c:184
{
  size_t count;
  size_t i;

  count = __preinit_array_end - __preinit_array_start;
  for (i = 0; i < count; i++)
 800063a:	687b      	ldr	r3, [r7, #4]
 800063c:	f103 0301 	add.w	r3, r3, #1
 8000640:	607b      	str	r3, [r7, #4]
 8000642:	687a      	ldr	r2, [r7, #4]
 8000644:	683b      	ldr	r3, [r7, #0]
 8000646:	429a      	cmp	r2, r3
 8000648:	d3ef      	bcc.n	800062a <__libc_init_array+0x26>
/Users/felipeneves/Documents/Projects/Embedded/uLipeRTOS/Debug/../libs/CMSIS/src/startup_cm.c:192
  // If you need to run the code in the .init section, please use
  // the startup files, since this requires the code in crti.o and crtn.o
  // to add the function prologue/epilogue.
  //_init();

  count = __init_array_end - __init_array_start;
 800064a:	f240 2278 	movw	r2, #632	; 0x278
 800064e:	f6c0 0200 	movt	r2, #2048	; 0x800
 8000652:	f240 2378 	movw	r3, #632	; 0x278
 8000656:	f6c0 0300 	movt	r3, #2048	; 0x800
 800065a:	1ad3      	subs	r3, r2, r3
 800065c:	ea4f 03a3 	mov.w	r3, r3, asr #2
 8000660:	603b      	str	r3, [r7, #0]
/Users/felipeneves/Documents/Projects/Embedded/uLipeRTOS/Debug/../libs/CMSIS/src/startup_cm.c:193
  for (i = 0; i < count; i++)
 8000662:	f04f 0300 	mov.w	r3, #0
 8000666:	607b      	str	r3, [r7, #4]
 8000668:	e00b      	b.n	8000682 <__libc_init_array+0x7e>
/Users/felipeneves/Documents/Projects/Embedded/uLipeRTOS/Debug/../libs/CMSIS/src/startup_cm.c:194
    __init_array_start[i]();
 800066a:	f240 2378 	movw	r3, #632	; 0x278
 800066e:	f6c0 0300 	movt	r3, #2048	; 0x800
 8000672:	687a      	ldr	r2, [r7, #4]
 8000674:	f853 3022 	ldr.w	r3, [r3, r2, lsl #2]
 8000678:	4798      	blx	r3
/Users/felipeneves/Documents/Projects/Embedded/uLipeRTOS/Debug/../libs/CMSIS/src/startup_cm.c:193
  // the startup files, since this requires the code in crti.o and crtn.o
  // to add the function prologue/epilogue.
  //_init();

  count = __init_array_end - __init_array_start;
  for (i = 0; i < count; i++)
 800067a:	687b      	ldr	r3, [r7, #4]
 800067c:	f103 0301 	add.w	r3, r3, #1
 8000680:	607b      	str	r3, [r7, #4]
 8000682:	687a      	ldr	r2, [r7, #4]
 8000684:	683b      	ldr	r3, [r7, #0]
 8000686:	429a      	cmp	r2, r3
 8000688:	d3ef      	bcc.n	800066a <__libc_init_array+0x66>
/Users/felipeneves/Documents/Projects/Embedded/uLipeRTOS/Debug/../libs/CMSIS/src/startup_cm.c:195
    __init_array_start[i]();
}
 800068a:	f107 0708 	add.w	r7, r7, #8
 800068e:	46bd      	mov	sp, r7
 8000690:	bd80      	pop	{r7, pc}
 8000692:	bf00      	nop

08000694 <__libc_fini_array>:
__libc_fini_array():
/Users/felipeneves/Documents/Projects/Embedded/uLipeRTOS/Debug/../libs/CMSIS/src/startup_cm.c:200

// Run all the cleanup routines.
inline void
__libc_fini_array(void)
{
 8000694:	b580      	push	{r7, lr}
 8000696:	b082      	sub	sp, #8
 8000698:	af00      	add	r7, sp, #0
/Users/felipeneves/Documents/Projects/Embedded/uLipeRTOS/Debug/../libs/CMSIS/src/startup_cm.c:204
  size_t count;
  size_t i;

  count = __fini_array_end - __fini_array_start;
 800069a:	f240 2278 	movw	r2, #632	; 0x278
 800069e:	f6c0 0200 	movt	r2, #2048	; 0x800
 80006a2:	f240 2378 	movw	r3, #632	; 0x278
 80006a6:	f6c0 0300 	movt	r3, #2048	; 0x800
 80006aa:	1ad3      	subs	r3, r2, r3
 80006ac:	ea4f 03a3 	mov.w	r3, r3, asr #2
 80006b0:	603b      	str	r3, [r7, #0]
/Users/felipeneves/Documents/Projects/Embedded/uLipeRTOS/Debug/../libs/CMSIS/src/startup_cm.c:205
  for (i = count; i > 0; i--)
 80006b2:	683b      	ldr	r3, [r7, #0]
 80006b4:	607b      	str	r3, [r7, #4]
 80006b6:	e00d      	b.n	80006d4 <__libc_fini_array+0x40>
/Users/felipeneves/Documents/Projects/Embedded/uLipeRTOS/Debug/../libs/CMSIS/src/startup_cm.c:206
    __fini_array_start[i - 1]();
 80006b8:	687b      	ldr	r3, [r7, #4]
 80006ba:	f103 32ff 	add.w	r2, r3, #4294967295	; 0xffffffff
 80006be:	f240 2378 	movw	r3, #632	; 0x278
 80006c2:	f6c0 0300 	movt	r3, #2048	; 0x800
 80006c6:	f853 3022 	ldr.w	r3, [r3, r2, lsl #2]
 80006ca:	4798      	blx	r3
/Users/felipeneves/Documents/Projects/Embedded/uLipeRTOS/Debug/../libs/CMSIS/src/startup_cm.c:205
{
  size_t count;
  size_t i;

  count = __fini_array_end - __fini_array_start;
  for (i = count; i > 0; i--)
 80006cc:	687b      	ldr	r3, [r7, #4]
 80006ce:	f103 33ff 	add.w	r3, r3, #4294967295	; 0xffffffff
 80006d2:	607b      	str	r3, [r7, #4]
 80006d4:	687b      	ldr	r3, [r7, #4]
 80006d6:	2b00      	cmp	r3, #0
 80006d8:	d1ee      	bne.n	80006b8 <__libc_fini_array+0x24>
/Users/felipeneves/Documents/Projects/Embedded/uLipeRTOS/Debug/../libs/CMSIS/src/startup_cm.c:212

  // If you need to run the code in the .fini section, please use
  // the startup files, since this requires the code in crti.o and crtn.o
  // to add the function prologue/epilogue.
  //_fini();
}
 80006da:	f107 0708 	add.w	r7, r7, #8
 80006de:	46bd      	mov	sp, r7
 80006e0:	bd80      	pop	{r7, pc}
 80006e2:	bf00      	nop

080006e4 <_exit>:
_exit():
/Users/felipeneves/Documents/Projects/Embedded/uLipeRTOS/Debug/../libs/CMSIS/src/startup_stm32f4xx.c:44
// You can redefine it in the application, if more functionality
// is required
void
__attribute__((weak))
_exit(int r)
{
 80006e4:	b480      	push	{r7}
 80006e6:	b083      	sub	sp, #12
 80006e8:	af00      	add	r7, sp, #0
 80006ea:	6078      	str	r0, [r7, #4]
/Users/felipeneves/Documents/Projects/Embedded/uLipeRTOS/Debug/../libs/CMSIS/src/startup_stm32f4xx.c:47
#if defined(DEBUG)
  while(1)
  ;
 80006ec:	e7fe      	b.n	80006ec <_exit+0x8>
 80006ee:	bf00      	nop

080006f0 <SystemInit>:
SystemInit():
/Users/felipeneves/Documents/Projects/Embedded/uLipeRTOS/Debug/../libs/CMSIS/src/system_stm32f4xx.c:338
  *         SystemFrequency variable.
  * @param  None
  * @retval None
  */
void SystemInit(void)
{
 80006f0:	b580      	push	{r7, lr}
 80006f2:	af00      	add	r7, sp, #0
/Users/felipeneves/Documents/Projects/Embedded/uLipeRTOS/Debug/../libs/CMSIS/src/system_stm32f4xx.c:345
  #if (__FPU_PRESENT == 1) && (__FPU_USED == 1)
    SCB->CPACR |= ((3UL << 10*2)|(3UL << 11*2));  /* set CP10 and CP11 Full Access */
  #endif
  /* Reset the RCC clock configuration to the default reset state ------------*/
  /* Set HSION bit */
  RCC->CR |= (uint32_t)0x00000001;
 80006f4:	f44f 5360 	mov.w	r3, #14336	; 0x3800
 80006f8:	f2c4 0302 	movt	r3, #16386	; 0x4002
 80006fc:	f44f 5260 	mov.w	r2, #14336	; 0x3800
 8000700:	f2c4 0202 	movt	r2, #16386	; 0x4002
 8000704:	6812      	ldr	r2, [r2, #0]
 8000706:	f042 0201 	orr.w	r2, r2, #1
 800070a:	601a      	str	r2, [r3, #0]
/Users/felipeneves/Documents/Projects/Embedded/uLipeRTOS/Debug/../libs/CMSIS/src/system_stm32f4xx.c:348

  /* Reset CFGR register */
  RCC->CFGR = 0x00000000;
 800070c:	f44f 5360 	mov.w	r3, #14336	; 0x3800
 8000710:	f2c4 0302 	movt	r3, #16386	; 0x4002
 8000714:	f04f 0200 	mov.w	r2, #0
 8000718:	609a      	str	r2, [r3, #8]
/Users/felipeneves/Documents/Projects/Embedded/uLipeRTOS/Debug/../libs/CMSIS/src/system_stm32f4xx.c:351

  /* Reset HSEON, CSSON and PLLON bits */
  RCC->CR &= (uint32_t)0xFEF6FFFF;
 800071a:	f44f 5360 	mov.w	r3, #14336	; 0x3800
 800071e:	f2c4 0302 	movt	r3, #16386	; 0x4002
 8000722:	f44f 5260 	mov.w	r2, #14336	; 0x3800
 8000726:	f2c4 0202 	movt	r2, #16386	; 0x4002
 800072a:	6812      	ldr	r2, [r2, #0]
 800072c:	f022 7284 	bic.w	r2, r2, #17301504	; 0x1080000
 8000730:	f422 3280 	bic.w	r2, r2, #65536	; 0x10000
 8000734:	601a      	str	r2, [r3, #0]
/Users/felipeneves/Documents/Projects/Embedded/uLipeRTOS/Debug/../libs/CMSIS/src/system_stm32f4xx.c:354

  /* Reset PLLCFGR register */
  RCC->PLLCFGR = 0x24003010;
 8000736:	f44f 5360 	mov.w	r3, #14336	; 0x3800
 800073a:	f2c4 0302 	movt	r3, #16386	; 0x4002
 800073e:	f243 0210 	movw	r2, #12304	; 0x3010
 8000742:	f2c2 4200 	movt	r2, #9216	; 0x2400
 8000746:	605a      	str	r2, [r3, #4]
/Users/felipeneves/Documents/Projects/Embedded/uLipeRTOS/Debug/../libs/CMSIS/src/system_stm32f4xx.c:357

  /* Reset HSEBYP bit */
  RCC->CR &= (uint32_t)0xFFFBFFFF;
 8000748:	f44f 5360 	mov.w	r3, #14336	; 0x3800
 800074c:	f2c4 0302 	movt	r3, #16386	; 0x4002
 8000750:	f44f 5260 	mov.w	r2, #14336	; 0x3800
 8000754:	f2c4 0202 	movt	r2, #16386	; 0x4002
 8000758:	6812      	ldr	r2, [r2, #0]
 800075a:	f422 2280 	bic.w	r2, r2, #262144	; 0x40000
 800075e:	601a      	str	r2, [r3, #0]
/Users/felipeneves/Documents/Projects/Embedded/uLipeRTOS/Debug/../libs/CMSIS/src/system_stm32f4xx.c:360

  /* Disable all interrupts */
  RCC->CIR = 0x00000000;
 8000760:	f44f 5360 	mov.w	r3, #14336	; 0x3800
 8000764:	f2c4 0302 	movt	r3, #16386	; 0x4002
 8000768:	f04f 0200 	mov.w	r2, #0
 800076c:	60da      	str	r2, [r3, #12]
/Users/felipeneves/Documents/Projects/Embedded/uLipeRTOS/Debug/../libs/CMSIS/src/system_stm32f4xx.c:368
  SystemInit_ExtMemCtl(); 
#endif /* DATA_IN_ExtSRAM || DATA_IN_ExtSDRAM */
         
  /* Configure the System clock source, PLL Multiplier and Divider factors, 
     AHB/APBx prescalers and Flash settings ----------------------------------*/
  SetSysClock();
 800076e:	f000 f809 	bl	8000784 <SetSysClock>
/Users/felipeneves/Documents/Projects/Embedded/uLipeRTOS/Debug/../libs/CMSIS/src/system_stm32f4xx.c:374

  /* Configure the Vector Table location add offset address ------------------*/
#ifdef VECT_TAB_SRAM
  SCB->VTOR = SRAM_BASE | VECT_TAB_OFFSET; /* Vector Table Relocation in Internal SRAM */
#else
  SCB->VTOR = FLASH_BASE | VECT_TAB_OFFSET; /* Vector Table Relocation in Internal FLASH */
 8000772:	f44f 436d 	mov.w	r3, #60672	; 0xed00
 8000776:	f2ce 0300 	movt	r3, #57344	; 0xe000
 800077a:	f04f 6200 	mov.w	r2, #134217728	; 0x8000000
 800077e:	609a      	str	r2, [r3, #8]
/Users/felipeneves/Documents/Projects/Embedded/uLipeRTOS/Debug/../libs/CMSIS/src/system_stm32f4xx.c:376
#endif
}
 8000780:	bd80      	pop	{r7, pc}
 8000782:	bf00      	nop

08000784 <SetSysClock>:
SetSysClock():
/Users/felipeneves/Documents/Projects/Embedded/uLipeRTOS/Debug/../libs/CMSIS/src/system_stm32f4xx.c:471
  *         is reset to the default reset state (done in SystemInit() function).   
  * @param  None
  * @retval None
  */
static void SetSysClock(void)
{
 8000784:	b480      	push	{r7}
 8000786:	b083      	sub	sp, #12
 8000788:	af00      	add	r7, sp, #0
/Users/felipeneves/Documents/Projects/Embedded/uLipeRTOS/Debug/../libs/CMSIS/src/system_stm32f4xx.c:475
/******************************************************************************/
/*            PLL (clocked by HSE) used as System clock source                */
/******************************************************************************/
  __IO uint32_t StartUpCounter = 0, HSEStatus = 0;
 800078a:	f04f 0300 	mov.w	r3, #0
 800078e:	607b      	str	r3, [r7, #4]
 8000790:	f04f 0300 	mov.w	r3, #0
 8000794:	603b      	str	r3, [r7, #0]
/Users/felipeneves/Documents/Projects/Embedded/uLipeRTOS/Debug/../libs/CMSIS/src/system_stm32f4xx.c:478
  
  /* Enable HSE */
  RCC->CR |= ((uint32_t)RCC_CR_HSEON);
 8000796:	f44f 5360 	mov.w	r3, #14336	; 0x3800
 800079a:	f2c4 0302 	movt	r3, #16386	; 0x4002
 800079e:	f44f 5260 	mov.w	r2, #14336	; 0x3800
 80007a2:	f2c4 0202 	movt	r2, #16386	; 0x4002
 80007a6:	6812      	ldr	r2, [r2, #0]
 80007a8:	f442 3280 	orr.w	r2, r2, #65536	; 0x10000
 80007ac:	601a      	str	r2, [r3, #0]
/Users/felipeneves/Documents/Projects/Embedded/uLipeRTOS/Debug/../libs/CMSIS/src/system_stm32f4xx.c:483
 
  /* Wait till HSE is ready and if Time out is reached exit */
  do
  {
    HSEStatus = RCC->CR & RCC_CR_HSERDY;
 80007ae:	f44f 5360 	mov.w	r3, #14336	; 0x3800
 80007b2:	f2c4 0302 	movt	r3, #16386	; 0x4002
 80007b6:	681b      	ldr	r3, [r3, #0]
 80007b8:	f403 3300 	and.w	r3, r3, #131072	; 0x20000
 80007bc:	603b      	str	r3, [r7, #0]
/Users/felipeneves/Documents/Projects/Embedded/uLipeRTOS/Debug/../libs/CMSIS/src/system_stm32f4xx.c:484
    StartUpCounter++;
 80007be:	687b      	ldr	r3, [r7, #4]
 80007c0:	f103 0301 	add.w	r3, r3, #1
 80007c4:	607b      	str	r3, [r7, #4]
/Users/felipeneves/Documents/Projects/Embedded/uLipeRTOS/Debug/../libs/CMSIS/src/system_stm32f4xx.c:485
  } while((HSEStatus == 0) && (StartUpCounter != HSE_STARTUP_TIMEOUT));
 80007c6:	683b      	ldr	r3, [r7, #0]
 80007c8:	2b00      	cmp	r3, #0
 80007ca:	d103      	bne.n	80007d4 <SetSysClock+0x50>
 80007cc:	687b      	ldr	r3, [r7, #4]
 80007ce:	f5b3 4fa0 	cmp.w	r3, #20480	; 0x5000
 80007d2:	d1ec      	bne.n	80007ae <SetSysClock+0x2a>
/Users/felipeneves/Documents/Projects/Embedded/uLipeRTOS/Debug/../libs/CMSIS/src/system_stm32f4xx.c:487

  if ((RCC->CR & RCC_CR_HSERDY) != RESET)
 80007d4:	f44f 5360 	mov.w	r3, #14336	; 0x3800
 80007d8:	f2c4 0302 	movt	r3, #16386	; 0x4002
 80007dc:	681b      	ldr	r3, [r3, #0]
 80007de:	f403 3300 	and.w	r3, r3, #131072	; 0x20000
 80007e2:	2b00      	cmp	r3, #0
 80007e4:	d003      	beq.n	80007ee <SetSysClock+0x6a>
/Users/felipeneves/Documents/Projects/Embedded/uLipeRTOS/Debug/../libs/CMSIS/src/system_stm32f4xx.c:489
  {
    HSEStatus = (uint32_t)0x01;
 80007e6:	f04f 0301 	mov.w	r3, #1
 80007ea:	603b      	str	r3, [r7, #0]
 80007ec:	e002      	b.n	80007f4 <SetSysClock+0x70>
/Users/felipeneves/Documents/Projects/Embedded/uLipeRTOS/Debug/../libs/CMSIS/src/system_stm32f4xx.c:493
  }
  else
  {
    HSEStatus = (uint32_t)0x00;
 80007ee:	f04f 0300 	mov.w	r3, #0
 80007f2:	603b      	str	r3, [r7, #0]
/Users/felipeneves/Documents/Projects/Embedded/uLipeRTOS/Debug/../libs/CMSIS/src/system_stm32f4xx.c:496
  }

  if (HSEStatus == (uint32_t)0x01)
 80007f4:	683b      	ldr	r3, [r7, #0]
 80007f6:	2b01      	cmp	r3, #1
 80007f8:	f040 8082 	bne.w	8000900 <SetSysClock+0x17c>
/Users/felipeneves/Documents/Projects/Embedded/uLipeRTOS/Debug/../libs/CMSIS/src/system_stm32f4xx.c:499
  {
    /* Select regulator voltage output Scale 1 mode */
    RCC->APB1ENR |= RCC_APB1ENR_PWREN;
 80007fc:	f44f 5360 	mov.w	r3, #14336	; 0x3800
 8000800:	f2c4 0302 	movt	r3, #16386	; 0x4002
 8000804:	f44f 5260 	mov.w	r2, #14336	; 0x3800
 8000808:	f2c4 0202 	movt	r2, #16386	; 0x4002
 800080c:	6c12      	ldr	r2, [r2, #64]	; 0x40
 800080e:	f042 5280 	orr.w	r2, r2, #268435456	; 0x10000000
 8000812:	641a      	str	r2, [r3, #64]	; 0x40
/Users/felipeneves/Documents/Projects/Embedded/uLipeRTOS/Debug/../libs/CMSIS/src/system_stm32f4xx.c:500
    PWR->CR |= PWR_CR_VOS;
 8000814:	f44f 43e0 	mov.w	r3, #28672	; 0x7000
 8000818:	f2c4 0300 	movt	r3, #16384	; 0x4000
 800081c:	f44f 42e0 	mov.w	r2, #28672	; 0x7000
 8000820:	f2c4 0200 	movt	r2, #16384	; 0x4000
 8000824:	6812      	ldr	r2, [r2, #0]
 8000826:	f442 4240 	orr.w	r2, r2, #49152	; 0xc000
 800082a:	601a      	str	r2, [r3, #0]
/Users/felipeneves/Documents/Projects/Embedded/uLipeRTOS/Debug/../libs/CMSIS/src/system_stm32f4xx.c:503

    /* HCLK = SYSCLK / 1*/
    RCC->CFGR |= RCC_CFGR_HPRE_DIV1;
 800082c:	f44f 5360 	mov.w	r3, #14336	; 0x3800
 8000830:	f2c4 0302 	movt	r3, #16386	; 0x4002
 8000834:	f44f 5260 	mov.w	r2, #14336	; 0x3800
 8000838:	f2c4 0202 	movt	r2, #16386	; 0x4002
 800083c:	6892      	ldr	r2, [r2, #8]
 800083e:	609a      	str	r2, [r3, #8]
/Users/felipeneves/Documents/Projects/Embedded/uLipeRTOS/Debug/../libs/CMSIS/src/system_stm32f4xx.c:507

#if defined (STM32F40_41xxx) || defined (STM32F427_437xx) || defined (STM32F429_439xx)      
    /* PCLK2 = HCLK / 2*/
    RCC->CFGR |= RCC_CFGR_PPRE2_DIV2;
 8000840:	f44f 5360 	mov.w	r3, #14336	; 0x3800
 8000844:	f2c4 0302 	movt	r3, #16386	; 0x4002
 8000848:	f44f 5260 	mov.w	r2, #14336	; 0x3800
 800084c:	f2c4 0202 	movt	r2, #16386	; 0x4002
 8000850:	6892      	ldr	r2, [r2, #8]
 8000852:	f442 4200 	orr.w	r2, r2, #32768	; 0x8000
 8000856:	609a      	str	r2, [r3, #8]
/Users/felipeneves/Documents/Projects/Embedded/uLipeRTOS/Debug/../libs/CMSIS/src/system_stm32f4xx.c:510
    
    /* PCLK1 = HCLK / 4*/
    RCC->CFGR |= RCC_CFGR_PPRE1_DIV4;
 8000858:	f44f 5360 	mov.w	r3, #14336	; 0x3800
 800085c:	f2c4 0302 	movt	r3, #16386	; 0x4002
 8000860:	f44f 5260 	mov.w	r2, #14336	; 0x3800
 8000864:	f2c4 0202 	movt	r2, #16386	; 0x4002
 8000868:	6892      	ldr	r2, [r2, #8]
 800086a:	f442 52a0 	orr.w	r2, r2, #5120	; 0x1400
 800086e:	609a      	str	r2, [r3, #8]
/Users/felipeneves/Documents/Projects/Embedded/uLipeRTOS/Debug/../libs/CMSIS/src/system_stm32f4xx.c:522
    /* PCLK1 = HCLK / 4*/
    RCC->CFGR |= RCC_CFGR_PPRE1_DIV2;
#endif /* STM32F401xx */
   
    /* Configure the main PLL */
    RCC->PLLCFGR = PLL_M | (PLL_N << 6) | (((PLL_P >> 1) -1) << 16) |
 8000870:	f44f 5360 	mov.w	r3, #14336	; 0x3800
 8000874:	f2c4 0302 	movt	r3, #16386	; 0x4002
 8000878:	f245 4219 	movw	r2, #21529	; 0x5419
 800087c:	f2c0 7240 	movt	r2, #1856	; 0x740
 8000880:	605a      	str	r2, [r3, #4]
/Users/felipeneves/Documents/Projects/Embedded/uLipeRTOS/Debug/../libs/CMSIS/src/system_stm32f4xx.c:526
                   (RCC_PLLCFGR_PLLSRC_HSE) | (PLL_Q << 24);

    /* Enable the main PLL */
    RCC->CR |= RCC_CR_PLLON;
 8000882:	f44f 5360 	mov.w	r3, #14336	; 0x3800
 8000886:	f2c4 0302 	movt	r3, #16386	; 0x4002
 800088a:	f44f 5260 	mov.w	r2, #14336	; 0x3800
 800088e:	f2c4 0202 	movt	r2, #16386	; 0x4002
 8000892:	6812      	ldr	r2, [r2, #0]
 8000894:	f042 7280 	orr.w	r2, r2, #16777216	; 0x1000000
 8000898:	601a      	str	r2, [r3, #0]
/Users/felipeneves/Documents/Projects/Embedded/uLipeRTOS/Debug/../libs/CMSIS/src/system_stm32f4xx.c:529

    /* Wait till the main PLL is ready */
    while((RCC->CR & RCC_CR_PLLRDY) == 0)
 800089a:	bf00      	nop
 800089c:	f44f 5360 	mov.w	r3, #14336	; 0x3800
 80008a0:	f2c4 0302 	movt	r3, #16386	; 0x4002
 80008a4:	681b      	ldr	r3, [r3, #0]
 80008a6:	f003 7300 	and.w	r3, r3, #33554432	; 0x2000000
 80008aa:	2b00      	cmp	r3, #0
 80008ac:	d0f6      	beq.n	800089c <SetSysClock+0x118>
/Users/felipeneves/Documents/Projects/Embedded/uLipeRTOS/Debug/../libs/CMSIS/src/system_stm32f4xx.c:549
    FLASH->ACR = FLASH_ACR_PRFTEN | FLASH_ACR_ICEN |FLASH_ACR_DCEN |FLASH_ACR_LATENCY_5WS;
#endif /* STM32F427_437x || STM32F429_439xx  */

#if defined (STM32F40_41xxx)     
    /* Configure Flash prefetch, Instruction cache, Data cache and wait state */
    FLASH->ACR = FLASH_ACR_PRFTEN | FLASH_ACR_ICEN |FLASH_ACR_DCEN |FLASH_ACR_LATENCY_5WS;
 80008ae:	f44f 5370 	mov.w	r3, #15360	; 0x3c00
 80008b2:	f2c4 0302 	movt	r3, #16386	; 0x4002
 80008b6:	f240 7205 	movw	r2, #1797	; 0x705
 80008ba:	601a      	str	r2, [r3, #0]
/Users/felipeneves/Documents/Projects/Embedded/uLipeRTOS/Debug/../libs/CMSIS/src/system_stm32f4xx.c:558
    /* Configure Flash prefetch, Instruction cache, Data cache and wait state */
    FLASH->ACR = FLASH_ACR_PRFTEN | FLASH_ACR_ICEN |FLASH_ACR_DCEN |FLASH_ACR_LATENCY_2WS;
#endif /* STM32F401xx */

    /* Select the main PLL as system clock source */
    RCC->CFGR &= (uint32_t)((uint32_t)~(RCC_CFGR_SW));
 80008bc:	f44f 5360 	mov.w	r3, #14336	; 0x3800
 80008c0:	f2c4 0302 	movt	r3, #16386	; 0x4002
 80008c4:	f44f 5260 	mov.w	r2, #14336	; 0x3800
 80008c8:	f2c4 0202 	movt	r2, #16386	; 0x4002
 80008cc:	6892      	ldr	r2, [r2, #8]
 80008ce:	f022 0203 	bic.w	r2, r2, #3
 80008d2:	609a      	str	r2, [r3, #8]
/Users/felipeneves/Documents/Projects/Embedded/uLipeRTOS/Debug/../libs/CMSIS/src/system_stm32f4xx.c:559
    RCC->CFGR |= RCC_CFGR_SW_PLL;
 80008d4:	f44f 5360 	mov.w	r3, #14336	; 0x3800
 80008d8:	f2c4 0302 	movt	r3, #16386	; 0x4002
 80008dc:	f44f 5260 	mov.w	r2, #14336	; 0x3800
 80008e0:	f2c4 0202 	movt	r2, #16386	; 0x4002
 80008e4:	6892      	ldr	r2, [r2, #8]
 80008e6:	f042 0202 	orr.w	r2, r2, #2
 80008ea:	609a      	str	r2, [r3, #8]
/Users/felipeneves/Documents/Projects/Embedded/uLipeRTOS/Debug/../libs/CMSIS/src/system_stm32f4xx.c:562

    /* Wait till the main PLL is used as system clock source */
    while ((RCC->CFGR & (uint32_t)RCC_CFGR_SWS ) != RCC_CFGR_SWS_PLL);
 80008ec:	bf00      	nop
 80008ee:	f44f 5360 	mov.w	r3, #14336	; 0x3800
 80008f2:	f2c4 0302 	movt	r3, #16386	; 0x4002
 80008f6:	689b      	ldr	r3, [r3, #8]
 80008f8:	f003 030c 	and.w	r3, r3, #12
 80008fc:	2b08      	cmp	r3, #8
 80008fe:	d1f6      	bne.n	80008ee <SetSysClock+0x16a>
/Users/felipeneves/Documents/Projects/Embedded/uLipeRTOS/Debug/../libs/CMSIS/src/system_stm32f4xx.c:571
  else
  { /* If HSE fails to start-up, the application will have wrong clock
         configuration. User can add here some code to deal with this error */
  }

}
 8000900:	f107 070c 	add.w	r7, r7, #12
 8000904:	46bd      	mov	sp, r7
 8000906:	bc80      	pop	{r7}
 8000908:	4770      	bx	lr
 800090a:	bf00      	nop

0800090c <Asm_LowLevelTickInit>:
Asm_LowLevelTickInit():
/Users/felipeneves/Documents/Projects/Embedded/uLipeRTOS/Debug/../RTOS/AsmStuff.S:47
@************************************************************************
.thumb_func
Asm_LowLevelTickInit:


		CPSID 	I				@Disable interrupts
 800090c:	b672      	cpsid	i
/Users/felipeneves/Documents/Projects/Embedded/uLipeRTOS/Debug/../RTOS/AsmStuff.S:49
								@
		LDR  R1, =0xE000ED14	@SCB->CCR
 800090e:	4936      	ldr	r1, [pc, #216]	; (80009e8 <SECOND_CHANGE+0x26>)
/Users/felipeneves/Documents/Projects/Embedded/uLipeRTOS/Debug/../RTOS/AsmStuff.S:50
		LDR  R2, [R1]			@
 8000910:	680a      	ldr	r2, [r1, #0]
/Users/felipeneves/Documents/Projects/Embedded/uLipeRTOS/Debug/../RTOS/AsmStuff.S:51
		ORR  R2,R2,#0x200		@Enable double word aling
 8000912:	f442 7200 	orr.w	r2, r2, #512	; 0x200
/Users/felipeneves/Documents/Projects/Embedded/uLipeRTOS/Debug/../RTOS/AsmStuff.S:52
		STR	 R2,[R1]			@
 8000916:	600a      	str	r2, [r1, #0]
/Users/felipeneves/Documents/Projects/Embedded/uLipeRTOS/Debug/../RTOS/AsmStuff.S:54
								@
		LDR  R1, =0xE000E010    @Load the systick control register contents
 8000918:	4934      	ldr	r1, [pc, #208]	; (80009ec <SECOND_CHANGE+0x2a>)
/Users/felipeneves/Documents/Projects/Embedded/uLipeRTOS/Debug/../RTOS/AsmStuff.S:55
		MOVS R2, #0x00000000	@
 800091a:	2200      	movs	r2, #0
/Users/felipeneves/Documents/Projects/Embedded/uLipeRTOS/Debug/../RTOS/AsmStuff.S:56
		STR	 R2, [R1], #0x04	@
 800091c:	f841 2b04 	str.w	r2, [r1], #4
/Users/felipeneves/Documents/Projects/Embedded/uLipeRTOS/Debug/../RTOS/AsmStuff.S:57
		STR  R0, [R1]			@Write the new value for load count
 8000920:	6008      	str	r0, [r1, #0]
/Users/felipeneves/Documents/Projects/Embedded/uLipeRTOS/Debug/../RTOS/AsmStuff.S:58
		SUBS R1, #0x04			@Points again to systick control gerister
 8000922:	3904      	subs	r1, #4
/Users/felipeneves/Documents/Projects/Embedded/uLipeRTOS/Debug/../RTOS/AsmStuff.S:61
								@
								@
		MOVS R2, #0x00000003    @Enable systick timer and its interrupt
 8000924:	2203      	movs	r2, #3
/Users/felipeneves/Documents/Projects/Embedded/uLipeRTOS/Debug/../RTOS/AsmStuff.S:62
		STR  R2, [R1]		 	@Write back on the systick register, and points to
 8000926:	600a      	str	r2, [r1, #0]
/Users/felipeneves/Documents/Projects/Embedded/uLipeRTOS/Debug/../RTOS/AsmStuff.S:65
							    @Load register
								@
		LDR   R1, =0xE000ED22  	@PENDSV Priority
 8000928:	4931      	ldr	r1, [pc, #196]	; (80009f0 <SECOND_CHANGE+0x2e>)
/Users/felipeneves/Documents/Projects/Embedded/uLipeRTOS/Debug/../RTOS/AsmStuff.S:66
		MOVS  R0, #0xFF			@
 800092a:	20ff      	movs	r0, #255	; 0xff
/Users/felipeneves/Documents/Projects/Embedded/uLipeRTOS/Debug/../RTOS/AsmStuff.S:67
		STRB  R0,[R1]			@set pend sv priority
 800092c:	7008      	strb	r0, [r1, #0]
/Users/felipeneves/Documents/Projects/Embedded/uLipeRTOS/Debug/../RTOS/AsmStuff.S:69
								@
		CPSIE  I				@Enable global interrupts
 800092e:	b662      	cpsie	i
/Users/felipeneves/Documents/Projects/Embedded/uLipeRTOS/Debug/../RTOS/AsmStuff.S:70
		BX	LR					@Return from sub
 8000930:	4770      	bx	lr

08000932 <Asm_CriticalIn>:
Asm_CriticalIn():
/Users/felipeneves/Documents/Projects/Embedded/uLipeRTOS/Debug/../RTOS/AsmStuff.S:86
@							 APSR value
@
@************************************************************************
.thumb_func
Asm_CriticalIn:
		MRS     R0, PRIMASK			@save status register
 8000932:	f3ef 8010 	mrs	r0, PRIMASK
/Users/felipeneves/Documents/Projects/Embedded/uLipeRTOS/Debug/../RTOS/AsmStuff.S:87
		CPSID	I					@disables all interrupts
 8000936:	b672      	cpsid	i
/Users/felipeneves/Documents/Projects/Embedded/uLipeRTOS/Debug/../RTOS/AsmStuff.S:88
		BX		LR					@Return from sub
 8000938:	4770      	bx	lr

0800093a <Asm_CriticalOut>:
Asm_CriticalOut():
/Users/felipeneves/Documents/Projects/Embedded/uLipeRTOS/Debug/../RTOS/AsmStuff.S:105
@
@************************************************************************
.thumb_func
Asm_CriticalOut:

		MSR	    PRIMASK,R0				@retrieve saved sr register
 800093a:	f380 8810 	msr	PRIMASK, r0
/Users/felipeneves/Documents/Projects/Embedded/uLipeRTOS/Debug/../RTOS/AsmStuff.S:106
		CPSIE	I					@enables all interrupts
 800093e:	b662      	cpsie	i
/Users/felipeneves/Documents/Projects/Embedded/uLipeRTOS/Debug/../RTOS/AsmStuff.S:107
		BX		LR					@Return from sub
 8000940:	4770      	bx	lr

08000942 <Asm_IntLevelContextChange>:
Asm_IntLevelContextChange():
/Users/felipeneves/Documents/Projects/Embedded/uLipeRTOS/Debug/../RTOS/AsmStuff.S:125
@
@************************************************************************
.thumb_func
Asm_IntLevelContextChange:

		CPSID 	I					@Disables interrrupts
 8000942:	b672      	cpsid	i
/Users/felipeneves/Documents/Projects/Embedded/uLipeRTOS/Debug/../RTOS/AsmStuff.S:126
		LDR  	R0, =0xE000ED04   	@SCB->ICSR register
 8000944:	482b      	ldr	r0, [pc, #172]	; (80009f4 <SECOND_CHANGE+0x32>)
/Users/felipeneves/Documents/Projects/Embedded/uLipeRTOS/Debug/../RTOS/AsmStuff.S:127
		MOVS	R1,#0x10000000	  	@Requests a PENDSV
 8000946:	f05f 5180 	movs.w	r1, #268435456	; 0x10000000
/Users/felipeneves/Documents/Projects/Embedded/uLipeRTOS/Debug/../RTOS/AsmStuff.S:130
									@exception
									@
		STR		R1,[R0]				@
 800094a:	6001      	str	r1, [r0, #0]
/Users/felipeneves/Documents/Projects/Embedded/uLipeRTOS/Debug/../RTOS/AsmStuff.S:131
		CPSIE	I					@Enable interrupts
 800094c:	b662      	cpsie	i
/Users/felipeneves/Documents/Projects/Embedded/uLipeRTOS/Debug/../RTOS/AsmStuff.S:133
									@
		BX LR 					  	@Return from sub
 800094e:	4770      	bx	lr

08000950 <Asm_TaskLevelContextChange>:
Asm_TaskLevelContextChange():
/Users/felipeneves/Documents/Projects/Embedded/uLipeRTOS/Debug/../RTOS/AsmStuff.S:151
@
@************************************************************************
.thumb_func
Asm_TaskLevelContextChange:

		CPSID 	I					@Disables interrrupts
 8000950:	b672      	cpsid	i
/Users/felipeneves/Documents/Projects/Embedded/uLipeRTOS/Debug/../RTOS/AsmStuff.S:152
		LDR  	R0, =0xE000ED04   	@SCB->ICSR register
 8000952:	4828      	ldr	r0, [pc, #160]	; (80009f4 <SECOND_CHANGE+0x32>)
/Users/felipeneves/Documents/Projects/Embedded/uLipeRTOS/Debug/../RTOS/AsmStuff.S:153
		MOVS	R1,#0x10000000	  	@Requests a PENDSV
 8000954:	f05f 5180 	movs.w	r1, #268435456	; 0x10000000
/Users/felipeneves/Documents/Projects/Embedded/uLipeRTOS/Debug/../RTOS/AsmStuff.S:156
									@exception
									@
		STR		R1,[R0]				@
 8000958:	6001      	str	r1, [r0, #0]
/Users/felipeneves/Documents/Projects/Embedded/uLipeRTOS/Debug/../RTOS/AsmStuff.S:157
		CPSIE	I					@Enable interrupts
 800095a:	b662      	cpsie	i
/Users/felipeneves/Documents/Projects/Embedded/uLipeRTOS/Debug/../RTOS/AsmStuff.S:160
									@
									@
		BX 		LR 					@Return from sub
 800095c:	4770      	bx	lr

0800095e <PendSV_Handler>:
PendSV_Handler():
/Users/felipeneves/Documents/Projects/Embedded/uLipeRTOS/Debug/../RTOS/AsmStuff.S:178
@
@
@************************************************************************
.thumb_func
PendSV_Handler:
		TST		LR,#4					@check the origin of interrupt
 800095e:	f01e 0f04 	tst.w	lr, #4
/Users/felipeneves/Documents/Projects/Embedded/uLipeRTOS/Debug/../RTOS/AsmStuff.S:179
		IT		EQ						@if, it from a MSP usage
 8000962:	bf08      	it	eq
/Users/felipeneves/Documents/Projects/Embedded/uLipeRTOS/Debug/../RTOS/AsmStuff.S:180
		BEQ		FIRST_CHANGE			@
 8000964:	f000 b81d 	beq.w	80009a2 <FIRST_CHANGE>
/Users/felipeneves/Documents/Projects/Embedded/uLipeRTOS/Debug/../RTOS/AsmStuff.S:182
										@
		LDR		R0, =pxHighReadyTask      @if not,
 8000968:	4823      	ldr	r0, [pc, #140]	; (80009f8 <SECOND_CHANGE+0x36>)
/Users/felipeneves/Documents/Projects/Embedded/uLipeRTOS/Debug/../RTOS/AsmStuff.S:183
		LDR		R0,[R0]					@
 800096a:	6800      	ldr	r0, [r0, #0]
/Users/felipeneves/Documents/Projects/Embedded/uLipeRTOS/Debug/../RTOS/AsmStuff.S:184
		LDR		R1,[R0, #+16]			@Check the current taskFLag
 800096c:	6901      	ldr	r1, [r0, #16]
/Users/felipeneves/Documents/Projects/Embedded/uLipeRTOS/Debug/../RTOS/AsmStuff.S:185
		TST		R1,#1					@Check if first time flag is set
 800096e:	f011 0f01 	tst.w	r1, #1
/Users/felipeneves/Documents/Projects/Embedded/uLipeRTOS/Debug/../RTOS/AsmStuff.S:186
		IT		NE						@
 8000972:	bf18      	it	ne
/Users/felipeneves/Documents/Projects/Embedded/uLipeRTOS/Debug/../RTOS/AsmStuff.S:187
		BNE 	SECOND_CHANGE			@Jump for first context switch
 8000974:	f000 b825 	bne.w	80009c2 <SECOND_CHANGE>
/Users/felipeneves/Documents/Projects/Embedded/uLipeRTOS/Debug/../RTOS/AsmStuff.S:190
										@
										@if, not, runs context switch normally
		LDR 	R0, =pxCurrentTask    	@Get the current TCB
 8000978:	4820      	ldr	r0, [pc, #128]	; (80009fc <SECOND_CHANGE+0x3a>)
/Users/felipeneves/Documents/Projects/Embedded/uLipeRTOS/Debug/../RTOS/AsmStuff.S:191
		LDR		R0,[R0]					@
 800097a:	6800      	ldr	r0, [r0, #0]
/Users/felipeneves/Documents/Projects/Embedded/uLipeRTOS/Debug/../RTOS/AsmStuff.S:192
		MRS		R1, PSP					@Get the current SP
 800097c:	f3ef 8109 	mrs	r1, PSP
/Users/felipeneves/Documents/Projects/Embedded/uLipeRTOS/Debug/../RTOS/AsmStuff.S:193
		STMDB	R1!,{R4 - R11}			@save R4 - R11 on the current stack
 8000980:	e921 0ff0 	stmdb	r1!, {r4, r5, r6, r7, r8, r9, sl, fp}
/Users/felipeneves/Documents/Projects/Embedded/uLipeRTOS/Debug/../RTOS/AsmStuff.S:195
										@
		STR		R1,[R0,#0]           	@Save the current stack pointer
 8000984:	6001      	str	r1, [r0, #0]
/Users/felipeneves/Documents/Projects/Embedded/uLipeRTOS/Debug/../RTOS/AsmStuff.S:197
										@
		LDR		R0,=pxHighReadyTask       @Get the first task from de queue
 8000986:	481c      	ldr	r0, [pc, #112]	; (80009f8 <SECOND_CHANGE+0x36>)
/Users/felipeneves/Documents/Projects/Embedded/uLipeRTOS/Debug/../RTOS/AsmStuff.S:198
		LDR		R0,[R0]					@Get the new stack pointer
 8000988:	6800      	ldr	r0, [r0, #0]
/Users/felipeneves/Documents/Projects/Embedded/uLipeRTOS/Debug/../RTOS/AsmStuff.S:199
		LDR		R1, [R0,#0]          	@
 800098a:	6801      	ldr	r1, [r0, #0]
/Users/felipeneves/Documents/Projects/Embedded/uLipeRTOS/Debug/../RTOS/AsmStuff.S:201
									    @
		LDMIA	R1!,{R4 - R11}			@Reload R4 -- R11
 800098c:	e8b1 0ff0 	ldmia.w	r1!, {r4, r5, r6, r7, r8, r9, sl, fp}
/Users/felipeneves/Documents/Projects/Embedded/uLipeRTOS/Debug/../RTOS/AsmStuff.S:202
		MSR		PSP , R1				@write the new stackpointer
 8000990:	f381 8809 	msr	PSP, r1

08000994 <NO_SAVE>:
NO_SAVE():
/Users/felipeneves/Documents/Projects/Embedded/uLipeRTOS/Debug/../RTOS/AsmStuff.S:205
NO_SAVE:								@
										@update the new current tcb
		LDR     R0, =pxHighReadyTask   	@
 8000994:	4818      	ldr	r0, [pc, #96]	; (80009f8 <SECOND_CHANGE+0x36>)
/Users/felipeneves/Documents/Projects/Embedded/uLipeRTOS/Debug/../RTOS/AsmStuff.S:206
		LDR		R0, [R0]				@
 8000996:	6800      	ldr	r0, [r0, #0]
/Users/felipeneves/Documents/Projects/Embedded/uLipeRTOS/Debug/../RTOS/AsmStuff.S:207
		LDR		R1,=pxCurrentTask     	@
 8000998:	4918      	ldr	r1, [pc, #96]	; (80009fc <SECOND_CHANGE+0x3a>)
/Users/felipeneves/Documents/Projects/Embedded/uLipeRTOS/Debug/../RTOS/AsmStuff.S:208
		STR		R0, [R1]				@
 800099a:	6008      	str	r0, [r1, #0]
/Users/felipeneves/Documents/Projects/Embedded/uLipeRTOS/Debug/../RTOS/AsmStuff.S:209
		ORR     LR,LR,#0x00000004		@ensures that return in PSP
 800099c:	f04e 0e04 	orr.w	lr, lr, #4
/Users/felipeneves/Documents/Projects/Embedded/uLipeRTOS/Debug/../RTOS/AsmStuff.S:210
		BX		LR						@Return from sub
 80009a0:	4770      	bx	lr

080009a2 <FIRST_CHANGE>:
FIRST_CHANGE():
/Users/felipeneves/Documents/Projects/Embedded/uLipeRTOS/Debug/../RTOS/AsmStuff.S:213
										@
FIRST_CHANGE:							@
		MOVS    R4, #0x02				@if the first run
 80009a2:	2402      	movs	r4, #2
/Users/felipeneves/Documents/Projects/Embedded/uLipeRTOS/Debug/../RTOS/AsmStuff.S:214
		MSR	    CONTROL, R4				@uses PSP always
 80009a4:	f384 8814 	msr	CONTROL, r4
/Users/felipeneves/Documents/Projects/Embedded/uLipeRTOS/Debug/../RTOS/AsmStuff.S:215
		ISB								@recommended after write control
 80009a8:	f3bf 8f6f 	isb	sy
/Users/felipeneves/Documents/Projects/Embedded/uLipeRTOS/Debug/../RTOS/AsmStuff.S:216
		LDR		R0,=pxHighReadyTask       @Get the newTCB
 80009ac:	4812      	ldr	r0, [pc, #72]	; (80009f8 <SECOND_CHANGE+0x36>)
/Users/felipeneves/Documents/Projects/Embedded/uLipeRTOS/Debug/../RTOS/AsmStuff.S:217
		LDR		R0,[R0]					@Get the new stack pointer
 80009ae:	6800      	ldr	r0, [r0, #0]
/Users/felipeneves/Documents/Projects/Embedded/uLipeRTOS/Debug/../RTOS/AsmStuff.S:218
		LDR		R1,[R0, #+16]			@Get task flags
 80009b0:	6901      	ldr	r1, [r0, #16]
/Users/felipeneves/Documents/Projects/Embedded/uLipeRTOS/Debug/../RTOS/AsmStuff.S:219
		BIC		R1,R1,#1				@clear first time flag
 80009b2:	f021 0101 	bic.w	r1, r1, #1
/Users/felipeneves/Documents/Projects/Embedded/uLipeRTOS/Debug/../RTOS/AsmStuff.S:220
		STR		R1,[R0, #+16]			@
 80009b6:	6101      	str	r1, [r0, #16]
/Users/felipeneves/Documents/Projects/Embedded/uLipeRTOS/Debug/../RTOS/AsmStuff.S:221
		LDR		R1, [R0,#0]	            @
 80009b8:	6801      	ldr	r1, [r0, #0]
/Users/felipeneves/Documents/Projects/Embedded/uLipeRTOS/Debug/../RTOS/AsmStuff.S:222
		MSR     PSP,R1					@Load the first stack pointer
 80009ba:	f381 8809 	msr	PSP, r1
/Users/felipeneves/Documents/Projects/Embedded/uLipeRTOS/Debug/../RTOS/AsmStuff.S:223
		B		NO_SAVE					@
 80009be:	f7ff bfe9 	b.w	8000994 <NO_SAVE>

080009c2 <SECOND_CHANGE>:
SECOND_CHANGE():
/Users/felipeneves/Documents/Projects/Embedded/uLipeRTOS/Debug/../RTOS/AsmStuff.S:226

SECOND_CHANGE:
		LDR 	R0, =pxCurrentTask    	@Get the current TCB
 80009c2:	480e      	ldr	r0, [pc, #56]	; (80009fc <SECOND_CHANGE+0x3a>)
/Users/felipeneves/Documents/Projects/Embedded/uLipeRTOS/Debug/../RTOS/AsmStuff.S:227
		LDR		R0,[R0]					@
 80009c4:	6800      	ldr	r0, [r0, #0]
/Users/felipeneves/Documents/Projects/Embedded/uLipeRTOS/Debug/../RTOS/AsmStuff.S:228
		MRS		R1, PSP					@Get the current SP
 80009c6:	f3ef 8109 	mrs	r1, PSP
/Users/felipeneves/Documents/Projects/Embedded/uLipeRTOS/Debug/../RTOS/AsmStuff.S:229
		STMDB	R1!,{R4 - R11}			@save R4 - R11 on the current stack
 80009ca:	e921 0ff0 	stmdb	r1!, {r4, r5, r6, r7, r8, r9, sl, fp}
/Users/felipeneves/Documents/Projects/Embedded/uLipeRTOS/Debug/../RTOS/AsmStuff.S:230
		STR		R1,[R0,#0x00] 	        @Save the current stack pointer
 80009ce:	6001      	str	r1, [r0, #0]
/Users/felipeneves/Documents/Projects/Embedded/uLipeRTOS/Debug/../RTOS/AsmStuff.S:232
										@
		LDR		R0,=pxHighReadyTask      @Get the newTCB
 80009d0:	4809      	ldr	r0, [pc, #36]	; (80009f8 <SECOND_CHANGE+0x36>)
/Users/felipeneves/Documents/Projects/Embedded/uLipeRTOS/Debug/../RTOS/AsmStuff.S:233
		LDR		R0,[R0]					@Get the new stack pointer
 80009d2:	6800      	ldr	r0, [r0, #0]
/Users/felipeneves/Documents/Projects/Embedded/uLipeRTOS/Debug/../RTOS/AsmStuff.S:234
		LDR		R1,[R0, #+16]			@Get task flags
 80009d4:	6901      	ldr	r1, [r0, #16]
/Users/felipeneves/Documents/Projects/Embedded/uLipeRTOS/Debug/../RTOS/AsmStuff.S:235
		BIC		R1,R1,#1				@clear first time flag
 80009d6:	f021 0101 	bic.w	r1, r1, #1
/Users/felipeneves/Documents/Projects/Embedded/uLipeRTOS/Debug/../RTOS/AsmStuff.S:236
		STR		R1,[R0, #+16]			@
 80009da:	6101      	str	r1, [r0, #16]
/Users/felipeneves/Documents/Projects/Embedded/uLipeRTOS/Debug/../RTOS/AsmStuff.S:237
		LDR		R1, [R0,#0]	            @
 80009dc:	6801      	ldr	r1, [r0, #0]
/Users/felipeneves/Documents/Projects/Embedded/uLipeRTOS/Debug/../RTOS/AsmStuff.S:238
		MSR     PSP,R1					@Load the first stack pointer
 80009de:	f381 8809 	msr	PSP, r1
/Users/felipeneves/Documents/Projects/Embedded/uLipeRTOS/Debug/../RTOS/AsmStuff.S:239
		B		NO_SAVE					@
 80009e2:	f7ff bfd7 	b.w	8000994 <NO_SAVE>
 80009e6:	0000      	.short	0x0000
/Users/felipeneves/Documents/Projects/Embedded/uLipeRTOS/Debug/../RTOS/AsmStuff.S:49
Asm_LowLevelTickInit:


		CPSID 	I				@Disable interrupts
								@
		LDR  R1, =0xE000ED14	@SCB->CCR
 80009e8:	e000ed14 	.word	0xe000ed14
/Users/felipeneves/Documents/Projects/Embedded/uLipeRTOS/Debug/../RTOS/AsmStuff.S:54
		LDR  R2, [R1]			@
		ORR  R2,R2,#0x200		@Enable double word aling
		STR	 R2,[R1]			@
								@
		LDR  R1, =0xE000E010    @Load the systick control register contents
 80009ec:	e000e010 	.word	0xe000e010
/Users/felipeneves/Documents/Projects/Embedded/uLipeRTOS/Debug/../RTOS/AsmStuff.S:65
								@
		MOVS R2, #0x00000003    @Enable systick timer and its interrupt
		STR  R2, [R1]		 	@Write back on the systick register, and points to
							    @Load register
								@
		LDR   R1, =0xE000ED22  	@PENDSV Priority
 80009f0:	e000ed22 	.word	0xe000ed22
/Users/felipeneves/Documents/Projects/Embedded/uLipeRTOS/Debug/../RTOS/AsmStuff.S:126
@************************************************************************
.thumb_func
Asm_IntLevelContextChange:

		CPSID 	I					@Disables interrrupts
		LDR  	R0, =0xE000ED04   	@SCB->ICSR register
 80009f4:	e000ed04 	.word	0xe000ed04
/Users/felipeneves/Documents/Projects/Embedded/uLipeRTOS/Debug/../RTOS/AsmStuff.S:182
PendSV_Handler:
		TST		LR,#4					@check the origin of interrupt
		IT		EQ						@if, it from a MSP usage
		BEQ		FIRST_CHANGE			@
										@
		LDR		R0, =pxHighReadyTask      @if not,
 80009f8:	2000000c 	.word	0x2000000c
/Users/felipeneves/Documents/Projects/Embedded/uLipeRTOS/Debug/../RTOS/AsmStuff.S:190
		TST		R1,#1					@Check if first time flag is set
		IT		NE						@
		BNE 	SECOND_CHANGE			@Jump for first context switch
										@
										@if, not, runs context switch normally
		LDR 	R0, =pxCurrentTask    	@Get the current TCB
 80009fc:	20000008 	.word	0x20000008

08000a00 <Core_ReadyTask>:
Core_ReadyTask():
/Users/felipeneves/Documents/Projects/Embedded/uLipeRTOS/Debug/../RTOS/uLipe_Core.c:146
 	 return:	  N/A


 ************************************************************************/
void Core_ReadyTask(uint8_t bOsPrio)
{
 8000a00:	b480      	push	{r7}
 8000a02:	b085      	sub	sp, #20
 8000a04:	af00      	add	r7, sp, #0
 8000a06:	4603      	mov	r3, r0
 8000a08:	71fb      	strb	r3, [r7, #7]
/Users/felipeneves/Documents/Projects/Embedded/uLipeRTOS/Debug/../RTOS/uLipe_Core.c:148
	//high bits of priority
	uint8_t bPrioH = 0;
 8000a0a:	f04f 0300 	mov.w	r3, #0
 8000a0e:	73fb      	strb	r3, [r7, #15]
/Users/felipeneves/Documents/Projects/Embedded/uLipeRTOS/Debug/../RTOS/uLipe_Core.c:151

	//low bits of priority
	uint8_t bPrioL  = 0;
 8000a10:	f04f 0300 	mov.w	r3, #0
 8000a14:	73bb      	strb	r3, [r7, #14]
/Users/felipeneves/Documents/Projects/Embedded/uLipeRTOS/Debug/../RTOS/uLipe_Core.c:157

	//breaks the given priority
	//in two parts:

	//High part first:
	bPrioH = (uint8_t)((bOsPrio >> 3) & 0x07);
 8000a16:	79fb      	ldrb	r3, [r7, #7]
 8000a18:	ea4f 03d3 	mov.w	r3, r3, lsr #3
 8000a1c:	b2db      	uxtb	r3, r3
 8000a1e:	f003 0307 	and.w	r3, r3, #7
 8000a22:	73fb      	strb	r3, [r7, #15]
/Users/felipeneves/Documents/Projects/Embedded/uLipeRTOS/Debug/../RTOS/uLipe_Core.c:160

	//Low part now:
	bPrioL = (uint8_t)(bOsPrio & 0x07);
 8000a24:	79fb      	ldrb	r3, [r7, #7]
 8000a26:	f003 0307 	and.w	r3, r3, #7
 8000a2a:	73bb      	strb	r3, [r7, #14]
/Users/felipeneves/Documents/Projects/Embedded/uLipeRTOS/Debug/../RTOS/uLipe_Core.c:164

	//set the bit thats match of prio in
	//ready group:
	bReadyGroup |= abBitPrioMask[bPrioH];
 8000a2c:	7bfa      	ldrb	r2, [r7, #15]
 8000a2e:	f241 33d0 	movw	r3, #5072	; 0x13d0
 8000a32:	f6c0 0300 	movt	r3, #2048	; 0x800
 8000a36:	5c9a      	ldrb	r2, [r3, r2]
 8000a38:	f240 0315 	movw	r3, #21
 8000a3c:	f2c2 0300 	movt	r3, #8192	; 0x2000
 8000a40:	781b      	ldrb	r3, [r3, #0]
 8000a42:	4313      	orrs	r3, r2
 8000a44:	b2da      	uxtb	r2, r3
 8000a46:	f240 0315 	movw	r3, #21
 8000a4a:	f2c2 0300 	movt	r3, #8192	; 0x2000
 8000a4e:	701a      	strb	r2, [r3, #0]
/Users/felipeneves/Documents/Projects/Embedded/uLipeRTOS/Debug/../RTOS/uLipe_Core.c:168

	//Now, maps the table of ready group
	//which contains this task:
	abReadyListGrp[bPrioH] |= abBitPrioMask[bPrioL];
 8000a50:	7bfa      	ldrb	r2, [r7, #15]
 8000a52:	7bf9      	ldrb	r1, [r7, #15]
 8000a54:	f240 2318 	movw	r3, #536	; 0x218
 8000a58:	f2c2 0300 	movt	r3, #8192	; 0x2000
 8000a5c:	5c59      	ldrb	r1, [r3, r1]
 8000a5e:	7bb8      	ldrb	r0, [r7, #14]
 8000a60:	f241 33d0 	movw	r3, #5072	; 0x13d0
 8000a64:	f6c0 0300 	movt	r3, #2048	; 0x800
 8000a68:	5c1b      	ldrb	r3, [r3, r0]
 8000a6a:	430b      	orrs	r3, r1
 8000a6c:	b2d9      	uxtb	r1, r3
 8000a6e:	f240 2318 	movw	r3, #536	; 0x218
 8000a72:	f2c2 0300 	movt	r3, #8192	; 0x2000
 8000a76:	5499      	strb	r1, [r3, r2]
/Users/felipeneves/Documents/Projects/Embedded/uLipeRTOS/Debug/../RTOS/uLipe_Core.c:170

}
 8000a78:	f107 0714 	add.w	r7, r7, #20
 8000a7c:	46bd      	mov	sp, r7
 8000a7e:	bc80      	pop	{r7}
 8000a80:	4770      	bx	lr
 8000a82:	bf00      	nop

08000a84 <Core_UnreadyTask>:
Core_UnreadyTask():
/Users/felipeneves/Documents/Projects/Embedded/uLipeRTOS/Debug/../RTOS/uLipe_Core.c:183
 	 return:	 N/A


************************************************************************/
void Core_UnreadyTask(uint8_t bOsPrio)
{
 8000a84:	b480      	push	{r7}
 8000a86:	b085      	sub	sp, #20
 8000a88:	af00      	add	r7, sp, #0
 8000a8a:	4603      	mov	r3, r0
 8000a8c:	71fb      	strb	r3, [r7, #7]
/Users/felipeneves/Documents/Projects/Embedded/uLipeRTOS/Debug/../RTOS/uLipe_Core.c:185
	//high bits of priority
	uint8_t bPrioH = 0;
 8000a8e:	f04f 0300 	mov.w	r3, #0
 8000a92:	73fb      	strb	r3, [r7, #15]
/Users/felipeneves/Documents/Projects/Embedded/uLipeRTOS/Debug/../RTOS/uLipe_Core.c:188

	//low bits of priority
	uint8_t bPrioL  = 0;
 8000a94:	f04f 0300 	mov.w	r3, #0
 8000a98:	73bb      	strb	r3, [r7, #14]
/Users/felipeneves/Documents/Projects/Embedded/uLipeRTOS/Debug/../RTOS/uLipe_Core.c:194

	//breaks the given priority
	//in two parts:

	//High part first:
	bPrioH = (uint8_t)((bOsPrio >> 3) & 0x07);
 8000a9a:	79fb      	ldrb	r3, [r7, #7]
 8000a9c:	ea4f 03d3 	mov.w	r3, r3, lsr #3
 8000aa0:	b2db      	uxtb	r3, r3
 8000aa2:	f003 0307 	and.w	r3, r3, #7
 8000aa6:	73fb      	strb	r3, [r7, #15]
/Users/felipeneves/Documents/Projects/Embedded/uLipeRTOS/Debug/../RTOS/uLipe_Core.c:197

	//Low part now:
	bPrioL = (uint8_t)(bOsPrio & 0x07);
 8000aa8:	79fb      	ldrb	r3, [r7, #7]
 8000aaa:	f003 0307 	and.w	r3, r3, #7
 8000aae:	73bb      	strb	r3, [r7, #14]
/Users/felipeneves/Documents/Projects/Embedded/uLipeRTOS/Debug/../RTOS/uLipe_Core.c:201

	//Now, maps the table of ready group
	//which contains this task:
	abReadyListGrp[bPrioH] &= ~(abBitPrioMask[bPrioL]);
 8000ab0:	7bfa      	ldrb	r2, [r7, #15]
 8000ab2:	7bf9      	ldrb	r1, [r7, #15]
 8000ab4:	f240 2318 	movw	r3, #536	; 0x218
 8000ab8:	f2c2 0300 	movt	r3, #8192	; 0x2000
 8000abc:	5c5b      	ldrb	r3, [r3, r1]
 8000abe:	b2d9      	uxtb	r1, r3
 8000ac0:	7bb8      	ldrb	r0, [r7, #14]
 8000ac2:	f241 33d0 	movw	r3, #5072	; 0x13d0
 8000ac6:	f6c0 0300 	movt	r3, #2048	; 0x800
 8000aca:	5c1b      	ldrb	r3, [r3, r0]
 8000acc:	b2db      	uxtb	r3, r3
 8000ace:	ea6f 0303 	mvn.w	r3, r3
 8000ad2:	b2db      	uxtb	r3, r3
 8000ad4:	400b      	ands	r3, r1
 8000ad6:	b2db      	uxtb	r3, r3
 8000ad8:	b2d9      	uxtb	r1, r3
 8000ada:	f240 2318 	movw	r3, #536	; 0x218
 8000ade:	f2c2 0300 	movt	r3, #8192	; 0x2000
 8000ae2:	5499      	strb	r1, [r3, r2]
/Users/felipeneves/Documents/Projects/Embedded/uLipeRTOS/Debug/../RTOS/uLipe_Core.c:204

	//check if this group have more tasks:
	if(0 == abReadyListGrp[bPrioH] )
 8000ae4:	7bfa      	ldrb	r2, [r7, #15]
 8000ae6:	f240 2318 	movw	r3, #536	; 0x218
 8000aea:	f2c2 0300 	movt	r3, #8192	; 0x2000
 8000aee:	5c9b      	ldrb	r3, [r3, r2]
 8000af0:	2b00      	cmp	r3, #0
 8000af2:	d117      	bne.n	8000b24 <Core_UnreadyTask+0xa0>
/Users/felipeneves/Documents/Projects/Embedded/uLipeRTOS/Debug/../RTOS/uLipe_Core.c:208
	{
		//clear the bit thats match of prio in
		//ready group:
		bReadyGroup &= ~(abBitPrioMask[bPrioH]);
 8000af4:	7bfa      	ldrb	r2, [r7, #15]
 8000af6:	f241 33d0 	movw	r3, #5072	; 0x13d0
 8000afa:	f6c0 0300 	movt	r3, #2048	; 0x800
 8000afe:	5c9b      	ldrb	r3, [r3, r2]
 8000b00:	b2db      	uxtb	r3, r3
 8000b02:	ea6f 0303 	mvn.w	r3, r3
 8000b06:	b2da      	uxtb	r2, r3
 8000b08:	f240 0315 	movw	r3, #21
 8000b0c:	f2c2 0300 	movt	r3, #8192	; 0x2000
 8000b10:	781b      	ldrb	r3, [r3, #0]
 8000b12:	b2db      	uxtb	r3, r3
 8000b14:	4013      	ands	r3, r2
 8000b16:	b2db      	uxtb	r3, r3
 8000b18:	b2da      	uxtb	r2, r3
 8000b1a:	f240 0315 	movw	r3, #21
 8000b1e:	f2c2 0300 	movt	r3, #8192	; 0x2000
 8000b22:	701a      	strb	r2, [r3, #0]
/Users/felipeneves/Documents/Projects/Embedded/uLipeRTOS/Debug/../RTOS/uLipe_Core.c:214
	}

	//if not, means this group have more tasks to execute
	//so unmodify the ready group

}
 8000b24:	f107 0714 	add.w	r7, r7, #20
 8000b28:	46bd      	mov	sp, r7
 8000b2a:	bc80      	pop	{r7}
 8000b2c:	4770      	bx	lr
 8000b2e:	bf00      	nop

08000b30 <Core_Schedule>:
Core_Schedule():
/Users/felipeneves/Documents/Projects/Embedded/uLipeRTOS/Debug/../RTOS/uLipe_Core.c:230
 	 return:	 N/A


 ************************************************************************/
void  Core_Schedule(void)
{
 8000b30:	b580      	push	{r7, lr}
 8000b32:	b082      	sub	sp, #8
 8000b34:	af00      	add	r7, sp, #0
/Users/felipeneves/Documents/Projects/Embedded/uLipeRTOS/Debug/../RTOS/uLipe_Core.c:232
	//high bits of priority
	uint8_t bPrioH = 0;
 8000b36:	f04f 0300 	mov.w	r3, #0
 8000b3a:	71fb      	strb	r3, [r7, #7]
/Users/felipeneves/Documents/Projects/Embedded/uLipeRTOS/Debug/../RTOS/uLipe_Core.c:235

	//low bits of priority
	uint8_t bPrioL  = 0;
 8000b3c:	f04f 0300 	mov.w	r3, #0
 8000b40:	71bb      	strb	r3, [r7, #6]
/Users/felipeneves/Documents/Projects/Embedded/uLipeRTOS/Debug/../RTOS/uLipe_Core.c:238

	//Alocates a temporary priority byte:
	uint8_t bOsPrio = 0;
 8000b42:	f04f 0300 	mov.w	r3, #0
 8000b46:	717b      	strb	r3, [r7, #5]
/Users/felipeneves/Documents/Projects/Embedded/uLipeRTOS/Debug/../RTOS/uLipe_Core.c:241

	//Allocates a temporary status register:
	uint32_t Sreg = 0;
 8000b48:	f04f 0300 	mov.w	r3, #0
 8000b4c:	603b      	str	r3, [r7, #0]
/Users/felipeneves/Documents/Projects/Embedded/uLipeRTOS/Debug/../RTOS/uLipe_Core.c:246

	//only schedule if:

	//Scheduler enabled and haves ready tasks:
	if((SCHED_EN == bScheduleFlag) && (0 != bReadyGroup))
 8000b4e:	f240 0300 	movw	r3, #0
 8000b52:	f2c2 0300 	movt	r3, #8192	; 0x2000
 8000b56:	781b      	ldrb	r3, [r3, #0]
 8000b58:	2b00      	cmp	r3, #0
 8000b5a:	d172      	bne.n	8000c42 <Core_Schedule+0x112>
 8000b5c:	f240 0315 	movw	r3, #21
 8000b60:	f2c2 0300 	movt	r3, #8192	; 0x2000
 8000b64:	781b      	ldrb	r3, [r3, #0]
 8000b66:	2b00      	cmp	r3, #0
 8000b68:	d06b      	beq.n	8000c42 <Core_Schedule+0x112>
/Users/felipeneves/Documents/Projects/Embedded/uLipeRTOS/Debug/../RTOS/uLipe_Core.c:249
	{
		//Suspend the current task:
		pxCurrentTask->TaskState = TASK_SUSPEND;
 8000b6a:	f240 0308 	movw	r3, #8
 8000b6e:	f2c2 0300 	movt	r3, #8192	; 0x2000
 8000b72:	681b      	ldr	r3, [r3, #0]
 8000b74:	f04f 0201 	mov.w	r2, #1
 8000b78:	775a      	strb	r2, [r3, #29]
/Users/felipeneves/Documents/Projects/Embedded/uLipeRTOS/Debug/../RTOS/uLipe_Core.c:252

		//create a critical section:
		Sreg = Asm_CriticalIn();
 8000b7a:	f7ff feda 	bl	8000932 <Asm_CriticalIn>
 8000b7e:	6038      	str	r0, [r7, #0]
/Users/felipeneves/Documents/Projects/Embedded/uLipeRTOS/Debug/../RTOS/uLipe_Core.c:256

		//reads the ready group and checks for the
		//least bit set (highest priority)
		bPrioH = (abLeastBitMap[bReadyGroup] & 0x07);
 8000b80:	f240 0315 	movw	r3, #21
 8000b84:	f2c2 0300 	movt	r3, #8192	; 0x2000
 8000b88:	781b      	ldrb	r3, [r3, #0]
 8000b8a:	461a      	mov	r2, r3
 8000b8c:	f241 33d8 	movw	r3, #5080	; 0x13d8
 8000b90:	f6c0 0300 	movt	r3, #2048	; 0x800
 8000b94:	5c9b      	ldrb	r3, [r3, r2]
 8000b96:	f003 0307 	and.w	r3, r3, #7
 8000b9a:	71fb      	strb	r3, [r7, #7]
/Users/felipeneves/Documents/Projects/Embedded/uLipeRTOS/Debug/../RTOS/uLipe_Core.c:260

		//reads now the least significant bit of
		// the selected group (highest priority)
		bPrioL = (abLeastBitMap[abReadyListGrp[bPrioH]] & 0x07);
 8000b9c:	79fa      	ldrb	r2, [r7, #7]
 8000b9e:	f240 2318 	movw	r3, #536	; 0x218
 8000ba2:	f2c2 0300 	movt	r3, #8192	; 0x2000
 8000ba6:	5c9b      	ldrb	r3, [r3, r2]
 8000ba8:	461a      	mov	r2, r3
 8000baa:	f241 33d8 	movw	r3, #5080	; 0x13d8
 8000bae:	f6c0 0300 	movt	r3, #2048	; 0x800
 8000bb2:	5c9b      	ldrb	r3, [r3, r2]
 8000bb4:	f003 0307 	and.w	r3, r3, #7
 8000bb8:	71bb      	strb	r3, [r7, #6]
/Users/felipeneves/Documents/Projects/Embedded/uLipeRTOS/Debug/../RTOS/uLipe_Core.c:263

		//combines prio high and low to form the HPT:
		bOsPrio =(uint8_t) (((bPrioH << 3))  + (bPrioL & 0x07));
 8000bba:	79fb      	ldrb	r3, [r7, #7]
 8000bbc:	ea4f 03c3 	mov.w	r3, r3, lsl #3
 8000bc0:	b2da      	uxtb	r2, r3
 8000bc2:	79bb      	ldrb	r3, [r7, #6]
 8000bc4:	f003 0307 	and.w	r3, r3, #7
 8000bc8:	b2db      	uxtb	r3, r3
 8000bca:	18d3      	adds	r3, r2, r3
 8000bcc:	717b      	strb	r3, [r7, #5]
/Users/felipeneves/Documents/Projects/Embedded/uLipeRTOS/Debug/../RTOS/uLipe_Core.c:267

		//whew...gives the address of highest priority task to the
		//highreadytaskblock:
		pxHighReadyTask = (taskTCB_t *) &axTaskList[bOsPrio];
 8000bce:	797a      	ldrb	r2, [r7, #5]
 8000bd0:	4613      	mov	r3, r2
 8000bd2:	ea4f 0343 	mov.w	r3, r3, lsl #1
 8000bd6:	189b      	adds	r3, r3, r2
 8000bd8:	ea4f 1303 	mov.w	r3, r3, lsl #4
 8000bdc:	f240 3220 	movw	r2, #800	; 0x320
 8000be0:	f2c2 0200 	movt	r2, #8192	; 0x2000
 8000be4:	189a      	adds	r2, r3, r2
 8000be6:	f240 030c 	movw	r3, #12
 8000bea:	f2c2 0300 	movt	r3, #8192	; 0x2000
 8000bee:	601a      	str	r2, [r3, #0]
/Users/felipeneves/Documents/Projects/Embedded/uLipeRTOS/Debug/../RTOS/uLipe_Core.c:270

		//Set this task as running:
		pxHighReadyTask->TaskState = TASK_RUNNING;
 8000bf0:	f240 030c 	movw	r3, #12
 8000bf4:	f2c2 0300 	movt	r3, #8192	; 0x2000
 8000bf8:	681b      	ldr	r3, [r3, #0]
 8000bfa:	f04f 0203 	mov.w	r2, #3
 8000bfe:	775a      	strb	r2, [r3, #29]
/Users/felipeneves/Documents/Projects/Embedded/uLipeRTOS/Debug/../RTOS/uLipe_Core.c:273

		//check if a task context switch is needed:
		if(pxHighReadyTask != pxCurrentTask)
 8000c00:	f240 030c 	movw	r3, #12
 8000c04:	f2c2 0300 	movt	r3, #8192	; 0x2000
 8000c08:	681a      	ldr	r2, [r3, #0]
 8000c0a:	f240 0308 	movw	r3, #8
 8000c0e:	f2c2 0300 	movt	r3, #8192	; 0x2000
 8000c12:	681b      	ldr	r3, [r3, #0]
 8000c14:	429a      	cmp	r2, r3
 8000c16:	d010      	beq.n	8000c3a <Core_Schedule+0x10a>
/Users/felipeneves/Documents/Projects/Embedded/uLipeRTOS/Debug/../RTOS/uLipe_Core.c:277
		{

			//Removes this task from ready list:
			Core_UnreadyTask(bOsPrio);
 8000c18:	797b      	ldrb	r3, [r7, #5]
 8000c1a:	4618      	mov	r0, r3
 8000c1c:	f7ff ff32 	bl	8000a84 <Core_UnreadyTask>
/Users/felipeneves/Documents/Projects/Embedded/uLipeRTOS/Debug/../RTOS/uLipe_Core.c:280

			//Disable the scheduler:
			bScheduleFlag = SCHED_DIS;
 8000c20:	f240 0300 	movw	r3, #0
 8000c24:	f2c2 0300 	movt	r3, #8192	; 0x2000
 8000c28:	f04f 02aa 	mov.w	r2, #170	; 0xaa
 8000c2c:	701a      	strb	r2, [r3, #0]
/Users/felipeneves/Documents/Projects/Embedded/uLipeRTOS/Debug/../RTOS/uLipe_Core.c:283

			//removes the critical section:
			Asm_CriticalOut(Sreg);
 8000c2e:	6838      	ldr	r0, [r7, #0]
 8000c30:	f7ff fe83 	bl	800093a <Asm_CriticalOut>
/Users/felipeneves/Documents/Projects/Embedded/uLipeRTOS/Debug/../RTOS/uLipe_Core.c:286

			//Perform a context switch:
			Asm_TaskLevelContextChange();
 8000c34:	f7ff fe8c 	bl	8000950 <Asm_TaskLevelContextChange>
/Users/felipeneves/Documents/Projects/Embedded/uLipeRTOS/Debug/../RTOS/uLipe_Core.c:273

		//Set this task as running:
		pxHighReadyTask->TaskState = TASK_RUNNING;

		//check if a task context switch is needed:
		if(pxHighReadyTask != pxCurrentTask)
 8000c38:	e00b      	b.n	8000c52 <Core_Schedule+0x122>
/Users/felipeneves/Documents/Projects/Embedded/uLipeRTOS/Debug/../RTOS/uLipe_Core.c:291
			Asm_TaskLevelContextChange();
		}
		else
		{
			//removes the critical section
			Asm_CriticalOut(Sreg);
 8000c3a:	6838      	ldr	r0, [r7, #0]
 8000c3c:	f7ff fe7d 	bl	800093a <Asm_CriticalOut>
/Users/felipeneves/Documents/Projects/Embedded/uLipeRTOS/Debug/../RTOS/uLipe_Core.c:273

		//Set this task as running:
		pxHighReadyTask->TaskState = TASK_RUNNING;

		//check if a task context switch is needed:
		if(pxHighReadyTask != pxCurrentTask)
 8000c40:	e007      	b.n	8000c52 <Core_Schedule+0x122>
/Users/felipeneves/Documents/Projects/Embedded/uLipeRTOS/Debug/../RTOS/uLipe_Core.c:297
		}
	}
	else
	{
		//and keep the current task in execution:
		pxCurrentTask->TaskState = TASK_RUNNING;
 8000c42:	f240 0308 	movw	r3, #8
 8000c46:	f2c2 0300 	movt	r3, #8192	; 0x2000
 8000c4a:	681b      	ldr	r3, [r3, #0]
 8000c4c:	f04f 0203 	mov.w	r2, #3
 8000c50:	775a      	strb	r2, [r3, #29]
/Users/felipeneves/Documents/Projects/Embedded/uLipeRTOS/Debug/../RTOS/uLipe_Core.c:300
	}

}
 8000c52:	f107 0708 	add.w	r7, r7, #8
 8000c56:	46bd      	mov	sp, r7
 8000c58:	bd80      	pop	{r7, pc}
 8000c5a:	bf00      	nop

08000c5c <Core_StackFrameCreate>:
Core_StackFrameCreate():
/Users/felipeneves/Documents/Projects/Embedded/uLipeRTOS/Debug/../RTOS/uLipe_Core.c:315
 	 return:	N/A


 ************************************************************************/
void Core_StackFrameCreate(taskTCB_t *pxCurrTask)
{
 8000c5c:	b480      	push	{r7}
 8000c5e:	b083      	sub	sp, #12
 8000c60:	af00      	add	r7, sp, #0
 8000c62:	6078      	str	r0, [r7, #4]
/Users/felipeneves/Documents/Projects/Embedded/uLipeRTOS/Debug/../RTOS/uLipe_Core.c:319
	//create a stack frame for this TCB:

	//first the APSR register
	*--pxCurrTask->TaskStack = 0x01000000;
 8000c64:	687b      	ldr	r3, [r7, #4]
 8000c66:	681b      	ldr	r3, [r3, #0]
 8000c68:	f1a3 0204 	sub.w	r2, r3, #4
 8000c6c:	687b      	ldr	r3, [r7, #4]
 8000c6e:	601a      	str	r2, [r3, #0]
 8000c70:	687b      	ldr	r3, [r7, #4]
 8000c72:	681b      	ldr	r3, [r3, #0]
 8000c74:	f04f 7280 	mov.w	r2, #16777216	; 0x1000000
 8000c78:	601a      	str	r2, [r3, #0]
/Users/felipeneves/Documents/Projects/Embedded/uLipeRTOS/Debug/../RTOS/uLipe_Core.c:321
	//Now the current PC (first address of task method)
	*--pxCurrTask->TaskStack = (uint32_t)pxCurrTask->TaskAction;
 8000c7a:	687b      	ldr	r3, [r7, #4]
 8000c7c:	681b      	ldr	r3, [r3, #0]
 8000c7e:	f1a3 0204 	sub.w	r2, r3, #4
 8000c82:	687b      	ldr	r3, [r7, #4]
 8000c84:	601a      	str	r2, [r3, #0]
 8000c86:	687b      	ldr	r3, [r7, #4]
 8000c88:	681b      	ldr	r3, [r3, #0]
 8000c8a:	687a      	ldr	r2, [r7, #4]
 8000c8c:	6852      	ldr	r2, [r2, #4]
 8000c8e:	601a      	str	r2, [r3, #0]
/Users/felipeneves/Documents/Projects/Embedded/uLipeRTOS/Debug/../RTOS/uLipe_Core.c:323
	//The LR register with exc_return with PSP
	*--pxCurrTask->TaskStack = 0xFFFFFFFD;
 8000c90:	687b      	ldr	r3, [r7, #4]
 8000c92:	681b      	ldr	r3, [r3, #0]
 8000c94:	f1a3 0204 	sub.w	r2, r3, #4
 8000c98:	687b      	ldr	r3, [r7, #4]
 8000c9a:	601a      	str	r2, [r3, #0]
 8000c9c:	687b      	ldr	r3, [r7, #4]
 8000c9e:	681b      	ldr	r3, [r3, #0]
 8000ca0:	f06f 0202 	mvn.w	r2, #2
 8000ca4:	601a      	str	r2, [r3, #0]
/Users/felipeneves/Documents/Projects/Embedded/uLipeRTOS/Debug/../RTOS/uLipe_Core.c:325
	//R12
	*--pxCurrTask->TaskStack = 0x00;
 8000ca6:	687b      	ldr	r3, [r7, #4]
 8000ca8:	681b      	ldr	r3, [r3, #0]
 8000caa:	f1a3 0204 	sub.w	r2, r3, #4
 8000cae:	687b      	ldr	r3, [r7, #4]
 8000cb0:	601a      	str	r2, [r3, #0]
 8000cb2:	687b      	ldr	r3, [r7, #4]
 8000cb4:	681b      	ldr	r3, [r3, #0]
 8000cb6:	f04f 0200 	mov.w	r2, #0
 8000cba:	601a      	str	r2, [r3, #0]
/Users/felipeneves/Documents/Projects/Embedded/uLipeRTOS/Debug/../RTOS/uLipe_Core.c:327
	//R3
	*--pxCurrTask->TaskStack = 0x00;
 8000cbc:	687b      	ldr	r3, [r7, #4]
 8000cbe:	681b      	ldr	r3, [r3, #0]
 8000cc0:	f1a3 0204 	sub.w	r2, r3, #4
 8000cc4:	687b      	ldr	r3, [r7, #4]
 8000cc6:	601a      	str	r2, [r3, #0]
 8000cc8:	687b      	ldr	r3, [r7, #4]
 8000cca:	681b      	ldr	r3, [r3, #0]
 8000ccc:	f04f 0200 	mov.w	r2, #0
 8000cd0:	601a      	str	r2, [r3, #0]
/Users/felipeneves/Documents/Projects/Embedded/uLipeRTOS/Debug/../RTOS/uLipe_Core.c:329
	//R2
	*--pxCurrTask->TaskStack = 0x00;
 8000cd2:	687b      	ldr	r3, [r7, #4]
 8000cd4:	681b      	ldr	r3, [r3, #0]
 8000cd6:	f1a3 0204 	sub.w	r2, r3, #4
 8000cda:	687b      	ldr	r3, [r7, #4]
 8000cdc:	601a      	str	r2, [r3, #0]
 8000cde:	687b      	ldr	r3, [r7, #4]
 8000ce0:	681b      	ldr	r3, [r3, #0]
 8000ce2:	f04f 0200 	mov.w	r2, #0
 8000ce6:	601a      	str	r2, [r3, #0]
/Users/felipeneves/Documents/Projects/Embedded/uLipeRTOS/Debug/../RTOS/uLipe_Core.c:331
	//R1
	*--pxCurrTask->TaskStack = 0x00;
 8000ce8:	687b      	ldr	r3, [r7, #4]
 8000cea:	681b      	ldr	r3, [r3, #0]
 8000cec:	f1a3 0204 	sub.w	r2, r3, #4
 8000cf0:	687b      	ldr	r3, [r7, #4]
 8000cf2:	601a      	str	r2, [r3, #0]
 8000cf4:	687b      	ldr	r3, [r7, #4]
 8000cf6:	681b      	ldr	r3, [r3, #0]
 8000cf8:	f04f 0200 	mov.w	r2, #0
 8000cfc:	601a      	str	r2, [r3, #0]
/Users/felipeneves/Documents/Projects/Embedded/uLipeRTOS/Debug/../RTOS/uLipe_Core.c:333
	//R0
	*--pxCurrTask->TaskStack = 0x00;
 8000cfe:	687b      	ldr	r3, [r7, #4]
 8000d00:	681b      	ldr	r3, [r3, #0]
 8000d02:	f1a3 0204 	sub.w	r2, r3, #4
 8000d06:	687b      	ldr	r3, [r7, #4]
 8000d08:	601a      	str	r2, [r3, #0]
 8000d0a:	687b      	ldr	r3, [r7, #4]
 8000d0c:	681b      	ldr	r3, [r3, #0]
 8000d0e:	f04f 0200 	mov.w	r2, #0
 8000d12:	601a      	str	r2, [r3, #0]
/Users/felipeneves/Documents/Projects/Embedded/uLipeRTOS/Debug/../RTOS/uLipe_Core.c:334
}
 8000d14:	f107 070c 	add.w	r7, r7, #12
 8000d18:	46bd      	mov	sp, r7
 8000d1a:	bc80      	pop	{r7}
 8000d1c:	4770      	bx	lr
 8000d1e:	bf00      	nop

08000d20 <Core_Init>:
Core_Init():
/Users/felipeneves/Documents/Projects/Embedded/uLipeRTOS/Debug/../RTOS/uLipe_Core.c:347
 	 return:	 OS_OK - System ok, all objects were initialized.


 ************************************************************************/
os_error_t Core_Init(void)
{
 8000d20:	b580      	push	{r7, lr}
 8000d22:	b084      	sub	sp, #16
 8000d24:	af02      	add	r7, sp, #8
/Users/felipeneves/Documents/Projects/Embedded/uLipeRTOS/Debug/../RTOS/uLipe_Core.c:352
	//Error variable:
	os_error_t xErr;

	//Initialize the tasks control blocks:
	Task_InitBlocks();
 8000d26:	f000 f8f9 	bl	8000f1c <Task_InitBlocks>
/Users/felipeneves/Documents/Projects/Embedded/uLipeRTOS/Debug/../RTOS/uLipe_Core.c:365
	//Timers

	//Semaphores

	//Disable the OS:
	bOsEnable = OS_DIS;
 8000d2a:	f240 0314 	movw	r3, #20
 8000d2e:	f2c2 0300 	movt	r3, #8192	; 0x2000
 8000d32:	f04f 0200 	mov.w	r2, #0
 8000d36:	701a      	strb	r2, [r3, #0]
/Users/felipeneves/Documents/Projects/Embedded/uLipeRTOS/Debug/../RTOS/uLipe_Core.c:368

	//reset the tick counter:
	dTickCounter = 0;
 8000d38:	f240 0310 	movw	r3, #16
 8000d3c:	f2c2 0300 	movt	r3, #8192	; 0x2000
 8000d40:	f04f 0200 	mov.w	r2, #0
 8000d44:	601a      	str	r2, [r3, #0]
/Users/felipeneves/Documents/Projects/Embedded/uLipeRTOS/Debug/../RTOS/uLipe_Core.c:372

	//create Idle task:
	//Install tasks:
	xErr = Task_Create	((taskptr_t *) &Core_IdleTask,
 8000d46:	f241 43d8 	movw	r3, #5336	; 0x14d8
 8000d4a:	f6c0 0300 	movt	r3, #2048	; 0x800
 8000d4e:	9300      	str	r3, [sp, #0]
 8000d50:	f640 50c9 	movw	r0, #3529	; 0xdc9
 8000d54:	f6c0 0000 	movt	r0, #2048	; 0x800
 8000d58:	f240 2120 	movw	r1, #544	; 0x220
 8000d5c:	f2c2 0100 	movt	r1, #8192	; 0x2000
 8000d60:	f44f 7280 	mov.w	r2, #256	; 0x100
 8000d64:	f04f 033f 	mov.w	r3, #63	; 0x3f
 8000d68:	f000 f928 	bl	8000fbc <Task_Create>
 8000d6c:	4603      	mov	r3, r0
 8000d6e:	71fb      	strb	r3, [r7, #7]
/Users/felipeneves/Documents/Projects/Embedded/uLipeRTOS/Debug/../RTOS/uLipe_Core.c:379
						 sizeof(axIdleTaskStack),
						 63,
						 (os_taskname_t *) "uLipeIdleTask");

	//check if all gone well:
	if(OS_OK != xErr)
 8000d70:	79fb      	ldrb	r3, [r7, #7]
 8000d72:	2b00      	cmp	r3, #0
 8000d74:	d002      	beq.n	8000d7c <Core_Init+0x5c>
/Users/felipeneves/Documents/Projects/Embedded/uLipeRTOS/Debug/../RTOS/uLipe_Core.c:381
	{
		return(OS_ERROR);
 8000d76:	f04f 0301 	mov.w	r3, #1
 8000d7a:	e001      	b.n	8000d80 <Core_Init+0x60>
/Users/felipeneves/Documents/Projects/Embedded/uLipeRTOS/Debug/../RTOS/uLipe_Core.c:385
	}

	//return ok
	return(OS_OK);
 8000d7c:	f04f 0300 	mov.w	r3, #0
/Users/felipeneves/Documents/Projects/Embedded/uLipeRTOS/Debug/../RTOS/uLipe_Core.c:386
}
 8000d80:	4618      	mov	r0, r3
 8000d82:	f107 0708 	add.w	r7, r7, #8
 8000d86:	46bd      	mov	sp, r7
 8000d88:	bd80      	pop	{r7, pc}
 8000d8a:	bf00      	nop

08000d8c <Core_Start>:
Core_Start():
/Users/felipeneves/Documents/Projects/Embedded/uLipeRTOS/Debug/../RTOS/uLipe_Core.c:405
	 	   to give its control to OS, but also it MUST be called after
	 	   all tasks were instaled and after a Core_Init().

 ************************************************************************/
void Core_Start(void)
{
 8000d8c:	b580      	push	{r7, lr}
 8000d8e:	af00      	add	r7, sp, #0
/Users/felipeneves/Documents/Projects/Embedded/uLipeRTOS/Debug/../RTOS/uLipe_Core.c:408
	//Since the all system is set up,
	//enables the tick counter:
	Asm_LowLevelTickInit(TIMER_LOAD);
 8000d90:	f640 2041 	movw	r0, #2625	; 0xa41
 8000d94:	f7ff fdba 	bl	800090c <Asm_LowLevelTickInit>
/Users/felipeneves/Documents/Projects/Embedded/uLipeRTOS/Debug/../RTOS/uLipe_Core.c:411

	//Enable the scheduler:
	Core_EnableSchedule();
 8000d98:	f000 f80a 	bl	8000db0 <Core_EnableSchedule>
/Users/felipeneves/Documents/Projects/Embedded/uLipeRTOS/Debug/../RTOS/uLipe_Core.c:415

	//Since all gone well, gives the control to
	//kernel:
	bOsEnable = OS_EN;
 8000d9c:	f240 0314 	movw	r3, #20
 8000da0:	f2c2 0300 	movt	r3, #8192	; 0x2000
 8000da4:	f04f 02ff 	mov.w	r2, #255	; 0xff
 8000da8:	701a      	strb	r2, [r3, #0]
/Users/felipeneves/Documents/Projects/Embedded/uLipeRTOS/Debug/../RTOS/uLipe_Core.c:418

	//Schedule the highest priority task:
	Core_Schedule();
 8000daa:	f7ff fec1 	bl	8000b30 <Core_Schedule>
/Users/felipeneves/Documents/Projects/Embedded/uLipeRTOS/Debug/../RTOS/uLipe_Core.c:421

	//should not return from here:
	while(1);
 8000dae:	e7fe      	b.n	8000dae <Core_Start+0x22>

08000db0 <Core_EnableSchedule>:
Core_EnableSchedule():
/Users/felipeneves/Documents/Projects/Embedded/uLipeRTOS/Debug/../RTOS/uLipe_Core.c:452
 	 return:	 N/A


 ************************************************************************/
void Core_EnableSchedule(void)
{
 8000db0:	b480      	push	{r7}
 8000db2:	af00      	add	r7, sp, #0
/Users/felipeneves/Documents/Projects/Embedded/uLipeRTOS/Debug/../RTOS/uLipe_Core.c:453
	bScheduleFlag = SCHED_EN;
 8000db4:	f240 0300 	movw	r3, #0
 8000db8:	f2c2 0300 	movt	r3, #8192	; 0x2000
 8000dbc:	f04f 0200 	mov.w	r2, #0
 8000dc0:	701a      	strb	r2, [r3, #0]
/Users/felipeneves/Documents/Projects/Embedded/uLipeRTOS/Debug/../RTOS/uLipe_Core.c:454
}
 8000dc2:	46bd      	mov	sp, r7
 8000dc4:	bc80      	pop	{r7}
 8000dc6:	4770      	bx	lr

08000dc8 <Core_IdleTask>:
Core_IdleTask():
/Users/felipeneves/Documents/Projects/Embedded/uLipeRTOS/Debug/../RTOS/uLipe_Core.c:515
 	 return:	  N/A


 ************************************************************************/
void Core_IdleTask(void *pxTaskArgs)
{
 8000dc8:	b580      	push	{r7, lr}
 8000dca:	b084      	sub	sp, #16
 8000dcc:	af00      	add	r7, sp, #0
 8000dce:	6078      	str	r0, [r7, #4]
/Users/felipeneves/Documents/Projects/Embedded/uLipeRTOS/Debug/../RTOS/uLipe_Core.c:517
	//allocates a counter
	uint32_t dExecCounter = 0;
 8000dd0:	f04f 0300 	mov.w	r3, #0
 8000dd4:	60fb      	str	r3, [r7, #12]
/Users/felipeneves/Documents/Projects/Embedded/uLipeRTOS/Debug/../RTOS/uLipe_Core.c:520

	//status register:
	uint32_t dSreg = 0;
 8000dd6:	f04f 0300 	mov.w	r3, #0
 8000dda:	60bb      	str	r3, [r7, #8]
/Users/felipeneves/Documents/Projects/Embedded/uLipeRTOS/Debug/../RTOS/uLipe_Core.c:526

	//every task is a infinite loop:
	while(1)
	{
		//create a critical section
		dSreg = Asm_CriticalIn();
 8000ddc:	f7ff fda9 	bl	8000932 <Asm_CriticalIn>
 8000de0:	60b8      	str	r0, [r7, #8]
/Users/felipeneves/Documents/Projects/Embedded/uLipeRTOS/Debug/../RTOS/uLipe_Core.c:529

		//increments the execution counter:
		dExecCounter++;
 8000de2:	68fb      	ldr	r3, [r7, #12]
 8000de4:	f103 0301 	add.w	r3, r3, #1
 8000de8:	60fb      	str	r3, [r7, #12]
/Users/felipeneves/Documents/Projects/Embedded/uLipeRTOS/Debug/../RTOS/uLipe_Core.c:532

		//ends the critical section:
		Asm_CriticalOut(dSreg);
 8000dea:	68b8      	ldr	r0, [r7, #8]
 8000dec:	f7ff fda5 	bl	800093a <Asm_CriticalOut>
/Users/felipeneves/Documents/Projects/Embedded/uLipeRTOS/Debug/../RTOS/uLipe_Core.c:533
	}
 8000df0:	e7f4      	b.n	8000ddc <Core_IdleTask+0x14>
 8000df2:	bf00      	nop

08000df4 <Core_TimeTick>:
Core_TimeTick():
/Users/felipeneves/Documents/Projects/Embedded/uLipeRTOS/Debug/../RTOS/uLipe_Core.c:552
 	 return:	  N/A


 ************************************************************************/
void Core_TimeTick(void)
{
 8000df4:	b580      	push	{r7, lr}
 8000df6:	b082      	sub	sp, #8
 8000df8:	af00      	add	r7, sp, #0
/Users/felipeneves/Documents/Projects/Embedded/uLipeRTOS/Debug/../RTOS/uLipe_Core.c:555

	//TCB to check the task list:
	taskTCB_t * pTCB = NULL;
 8000dfa:	f04f 0300 	mov.w	r3, #0
 8000dfe:	607b      	str	r3, [r7, #4]
/Users/felipeneves/Documents/Projects/Embedded/uLipeRTOS/Debug/../RTOS/uLipe_Core.c:558

	//allocates a status register:
	uint32_t  Sreg = 0;
 8000e00:	f04f 0300 	mov.w	r3, #0
 8000e04:	603b      	str	r3, [r7, #0]
/Users/felipeneves/Documents/Projects/Embedded/uLipeRTOS/Debug/../RTOS/uLipe_Core.c:561

	//create a critical section:
	Sreg = Asm_CriticalIn();
 8000e06:	f7ff fd94 	bl	8000932 <Asm_CriticalIn>
 8000e0a:	6038      	str	r0, [r7, #0]
/Users/felipeneves/Documents/Projects/Embedded/uLipeRTOS/Debug/../RTOS/uLipe_Core.c:564

	//increments the tick counter:
	dTickCounter++;
 8000e0c:	f240 0310 	movw	r3, #16
 8000e10:	f2c2 0300 	movt	r3, #8192	; 0x2000
 8000e14:	681b      	ldr	r3, [r3, #0]
 8000e16:	f103 0201 	add.w	r2, r3, #1
 8000e1a:	f240 0310 	movw	r3, #16
 8000e1e:	f2c2 0300 	movt	r3, #8192	; 0x2000
 8000e22:	601a      	str	r2, [r3, #0]
/Users/felipeneves/Documents/Projects/Embedded/uLipeRTOS/Debug/../RTOS/uLipe_Core.c:567

	//ends the critical section:
	Asm_CriticalOut(Sreg);
 8000e24:	6838      	ldr	r0, [r7, #0]
 8000e26:	f7ff fd88 	bl	800093a <Asm_CriticalOut>
/Users/felipeneves/Documents/Projects/Embedded/uLipeRTOS/Debug/../RTOS/uLipe_Core.c:571


	//check first if the OS is enabled:
	if(OS_EN == bOsEnable)
 8000e2a:	f240 0314 	movw	r3, #20
 8000e2e:	f2c2 0300 	movt	r3, #8192	; 0x2000
 8000e32:	781b      	ldrb	r3, [r3, #0]
 8000e34:	2bff      	cmp	r3, #255	; 0xff
 8000e36:	d16a      	bne.n	8000f0e <Core_TimeTick+0x11a>
/Users/felipeneves/Documents/Projects/Embedded/uLipeRTOS/Debug/../RTOS/uLipe_Core.c:575
	{

		//check if the tick period of current task is expired
		if((int32_t)(dTickCounter - pxCurrentTask->TaskElapsedTime) >= (int32_t)(pxCurrentTask->TaskTime))
 8000e38:	f240 0310 	movw	r3, #16
 8000e3c:	f2c2 0300 	movt	r3, #8192	; 0x2000
 8000e40:	681a      	ldr	r2, [r3, #0]
 8000e42:	f240 0308 	movw	r3, #8
 8000e46:	f2c2 0300 	movt	r3, #8192	; 0x2000
 8000e4a:	681b      	ldr	r3, [r3, #0]
 8000e4c:	699b      	ldr	r3, [r3, #24]
 8000e4e:	1ad3      	subs	r3, r2, r3
 8000e50:	461a      	mov	r2, r3
 8000e52:	f240 0308 	movw	r3, #8
 8000e56:	f2c2 0300 	movt	r3, #8192	; 0x2000
 8000e5a:	681b      	ldr	r3, [r3, #0]
 8000e5c:	695b      	ldr	r3, [r3, #20]
 8000e5e:	429a      	cmp	r2, r3
 8000e60:	db19      	blt.n	8000e96 <Core_TimeTick+0xa2>
/Users/felipeneves/Documents/Projects/Embedded/uLipeRTOS/Debug/../RTOS/uLipe_Core.c:578
		{
			//Suspend the current task:
			pxCurrentTask->TaskState = TASK_SUSPEND;
 8000e62:	f240 0308 	movw	r3, #8
 8000e66:	f2c2 0300 	movt	r3, #8192	; 0x2000
 8000e6a:	681b      	ldr	r3, [r3, #0]
 8000e6c:	f04f 0201 	mov.w	r2, #1
 8000e70:	775a      	strb	r2, [r3, #29]
/Users/felipeneves/Documents/Projects/Embedded/uLipeRTOS/Debug/../RTOS/uLipe_Core.c:581

			//reads the current tick counter:
			pxCurrentTask->TaskElapsedTime = dTickCounter;
 8000e72:	f240 0308 	movw	r3, #8
 8000e76:	f2c2 0300 	movt	r3, #8192	; 0x2000
 8000e7a:	681a      	ldr	r2, [r3, #0]
 8000e7c:	f240 0310 	movw	r3, #16
 8000e80:	f2c2 0300 	movt	r3, #8192	; 0x2000
 8000e84:	681b      	ldr	r3, [r3, #0]
 8000e86:	6193      	str	r3, [r2, #24]
/Users/felipeneves/Documents/Projects/Embedded/uLipeRTOS/Debug/../RTOS/uLipe_Core.c:584

			//Enable Scheduler:
			bScheduleFlag = SCHED_EN;
 8000e88:	f240 0300 	movw	r3, #0
 8000e8c:	f2c2 0300 	movt	r3, #8192	; 0x2000
 8000e90:	f04f 0200 	mov.w	r2, #0
 8000e94:	701a      	strb	r2, [r3, #0]
/Users/felipeneves/Documents/Projects/Embedded/uLipeRTOS/Debug/../RTOS/uLipe_Core.c:591
		}


		//points to head of tasklist
		//always will be the lowest priority task:
		pTCB = (taskTCB_t *) &axTaskList[MAX_TASK_NUMBER - 1];
 8000e96:	4b20      	ldr	r3, [pc, #128]	; (8000f18 <Core_TimeTick+0x124>)
 8000e98:	607b      	str	r3, [r7, #4]
/Users/felipeneves/Documents/Projects/Embedded/uLipeRTOS/Debug/../RTOS/uLipe_Core.c:594

		//go trhough task list:
		while((taskTCB_t *)END_LIST != pTCB)
 8000e9a:	e031      	b.n	8000f00 <Core_TimeTick+0x10c>
/Users/felipeneves/Documents/Projects/Embedded/uLipeRTOS/Debug/../RTOS/uLipe_Core.c:597
		{
			//check if task is blocked:
			if(TASK_BLOCKED != pTCB->TaskState)
 8000e9c:	687b      	ldr	r3, [r7, #4]
 8000e9e:	7f5b      	ldrb	r3, [r3, #29]
 8000ea0:	2b02      	cmp	r3, #2
 8000ea2:	d02a      	beq.n	8000efa <Core_TimeTick+0x106>
/Users/felipeneves/Documents/Projects/Embedded/uLipeRTOS/Debug/../RTOS/uLipe_Core.c:602
			{

				//if not blocked, check if state is different
				//of running:
				if(TASK_SUSPEND == pTCB->TaskState)
 8000ea4:	687b      	ldr	r3, [r7, #4]
 8000ea6:	7f5b      	ldrb	r3, [r3, #29]
 8000ea8:	2b01      	cmp	r3, #1
 8000eaa:	d126      	bne.n	8000efa <Core_TimeTick+0x106>
/Users/felipeneves/Documents/Projects/Embedded/uLipeRTOS/Debug/../RTOS/uLipe_Core.c:605
				{
					//check the current pTCB is ready:
					if((int32_t)(dTickCounter - pTCB->TaskElapsedTime) >= (int32_t)(pTCB->TaskTime))
 8000eac:	f240 0310 	movw	r3, #16
 8000eb0:	f2c2 0300 	movt	r3, #8192	; 0x2000
 8000eb4:	681a      	ldr	r2, [r3, #0]
 8000eb6:	687b      	ldr	r3, [r7, #4]
 8000eb8:	699b      	ldr	r3, [r3, #24]
 8000eba:	1ad3      	subs	r3, r2, r3
 8000ebc:	461a      	mov	r2, r3
 8000ebe:	687b      	ldr	r3, [r7, #4]
 8000ec0:	695b      	ldr	r3, [r3, #20]
 8000ec2:	429a      	cmp	r2, r3
 8000ec4:	db19      	blt.n	8000efa <Core_TimeTick+0x106>
/Users/felipeneves/Documents/Projects/Embedded/uLipeRTOS/Debug/../RTOS/uLipe_Core.c:608
					{
						//if is ready put on ready list:
						pTCB->TaskState = TASK_READY;
 8000ec6:	687b      	ldr	r3, [r7, #4]
 8000ec8:	f04f 0200 	mov.w	r2, #0
 8000ecc:	775a      	strb	r2, [r3, #29]
/Users/felipeneves/Documents/Projects/Embedded/uLipeRTOS/Debug/../RTOS/uLipe_Core.c:611

						//put this task on ready group list:
						Core_ReadyTask((uint8_t)pTCB->TaskPriority);
 8000ece:	687b      	ldr	r3, [r7, #4]
 8000ed0:	7f1b      	ldrb	r3, [r3, #28]
 8000ed2:	4618      	mov	r0, r3
 8000ed4:	f7ff fd94 	bl	8000a00 <Core_ReadyTask>
/Users/felipeneves/Documents/Projects/Embedded/uLipeRTOS/Debug/../RTOS/uLipe_Core.c:615

						//check if this task has more priority
						//than the current task:
						if(pTCB->TaskPriority < pxCurrentTask->TaskPriority)
 8000ed8:	687b      	ldr	r3, [r7, #4]
 8000eda:	7f1a      	ldrb	r2, [r3, #28]
 8000edc:	f240 0308 	movw	r3, #8
 8000ee0:	f2c2 0300 	movt	r3, #8192	; 0x2000
 8000ee4:	681b      	ldr	r3, [r3, #0]
 8000ee6:	7f1b      	ldrb	r3, [r3, #28]
 8000ee8:	429a      	cmp	r2, r3
 8000eea:	d206      	bcs.n	8000efa <Core_TimeTick+0x106>
/Users/felipeneves/Documents/Projects/Embedded/uLipeRTOS/Debug/../RTOS/uLipe_Core.c:618
						{
							//So, enable the scheduler:
							bScheduleFlag = SCHED_EN;
 8000eec:	f240 0300 	movw	r3, #0
 8000ef0:	f2c2 0300 	movt	r3, #8192	; 0x2000
 8000ef4:	f04f 0200 	mov.w	r2, #0
 8000ef8:	701a      	strb	r2, [r3, #0]
/Users/felipeneves/Documents/Projects/Embedded/uLipeRTOS/Debug/../RTOS/uLipe_Core.c:627

				}

			}
			//go to next list position:
			pTCB = (taskTCB_t *)pTCB->NextTask;
 8000efa:	687b      	ldr	r3, [r7, #4]
 8000efc:	689b      	ldr	r3, [r3, #8]
 8000efe:	607b      	str	r3, [r7, #4]
/Users/felipeneves/Documents/Projects/Embedded/uLipeRTOS/Debug/../RTOS/uLipe_Core.c:594
		//points to head of tasklist
		//always will be the lowest priority task:
		pTCB = (taskTCB_t *) &axTaskList[MAX_TASK_NUMBER - 1];

		//go trhough task list:
		while((taskTCB_t *)END_LIST != pTCB)
 8000f00:	687a      	ldr	r2, [r7, #4]
 8000f02:	f06f 1355 	mvn.w	r3, #5570645	; 0x550055
 8000f06:	429a      	cmp	r2, r3
 8000f08:	d1c8      	bne.n	8000e9c <Core_TimeTick+0xa8>
/Users/felipeneves/Documents/Projects/Embedded/uLipeRTOS/Debug/../RTOS/uLipe_Core.c:632
			pTCB = (taskTCB_t *)pTCB->NextTask;
		}

		//after to pass all the task list
		//find (if necessary) the new high priority task ready to run:
		Core_Schedule();
 8000f0a:	f7ff fe11 	bl	8000b30 <Core_Schedule>
/Users/felipeneves/Documents/Projects/Embedded/uLipeRTOS/Debug/../RTOS/uLipe_Core.c:635

	}
}
 8000f0e:	f107 0708 	add.w	r7, r7, #8
 8000f12:	46bd      	mov	sp, r7
 8000f14:	bd80      	pop	{r7, pc}
 8000f16:	bf00      	nop
 8000f18:	20000ef0 	.word	0x20000ef0

08000f1c <Task_InitBlocks>:
Task_InitBlocks():
/Users/felipeneves/Documents/Projects/Embedded/uLipeRTOS/Debug/../RTOS/uLipe_Task.c:80
 	 return:	N/A


 ************************************************************************/
void Task_InitBlocks(void)
{
 8000f1c:	b580      	push	{r7, lr}
 8000f1e:	b082      	sub	sp, #8
 8000f20:	af00      	add	r7, sp, #0
/Users/felipeneves/Documents/Projects/Embedded/uLipeRTOS/Debug/../RTOS/uLipe_Task.c:84
	uint8_t bI;

	//clears all TCBs first:
	for(bI = 0; bI < MAX_TASK_NUMBER; bI++)
 8000f22:	f04f 0300 	mov.w	r3, #0
 8000f26:	71fb      	strb	r3, [r7, #7]
 8000f28:	e038      	b.n	8000f9c <Task_InitBlocks+0x80>
/Users/felipeneves/Documents/Projects/Embedded/uLipeRTOS/Debug/../RTOS/uLipe_Task.c:86
	{
		memset((char *)&axTaskList[bI], 0 , sizeof(taskTCB_t));
 8000f2a:	79fa      	ldrb	r2, [r7, #7]
 8000f2c:	4613      	mov	r3, r2
 8000f2e:	ea4f 0343 	mov.w	r3, r3, lsl #1
 8000f32:	189b      	adds	r3, r3, r2
 8000f34:	ea4f 1303 	mov.w	r3, r3, lsl #4
 8000f38:	f240 3220 	movw	r2, #800	; 0x320
 8000f3c:	f2c2 0200 	movt	r2, #8192	; 0x2000
 8000f40:	189b      	adds	r3, r3, r2
 8000f42:	4618      	mov	r0, r3
 8000f44:	f04f 0100 	mov.w	r1, #0
 8000f48:	f04f 0230 	mov.w	r2, #48	; 0x30
 8000f4c:	f000 f9a0 	bl	8001290 <memset>
/Users/felipeneves/Documents/Projects/Embedded/uLipeRTOS/Debug/../RTOS/uLipe_Task.c:89

		//set the TCB as free
		axTaskList[bI].EmptyTCB = EMPTY;
 8000f50:	79f9      	ldrb	r1, [r7, #7]
 8000f52:	f240 3220 	movw	r2, #800	; 0x320
 8000f56:	f2c2 0200 	movt	r2, #8192	; 0x2000
 8000f5a:	460b      	mov	r3, r1
 8000f5c:	ea4f 0343 	mov.w	r3, r3, lsl #1
 8000f60:	185b      	adds	r3, r3, r1
 8000f62:	ea4f 1303 	mov.w	r3, r3, lsl #4
 8000f66:	18d3      	adds	r3, r2, r3
 8000f68:	f103 0328 	add.w	r3, r3, #40	; 0x28
 8000f6c:	f04f 0200 	mov.w	r2, #0
 8000f70:	719a      	strb	r2, [r3, #6]
/Users/felipeneves/Documents/Projects/Embedded/uLipeRTOS/Debug/../RTOS/uLipe_Task.c:92

		//set the TCB as task deleted:
		axTaskList[bI].TaskState = TASK_DELETED;
 8000f72:	79f9      	ldrb	r1, [r7, #7]
 8000f74:	f240 3220 	movw	r2, #800	; 0x320
 8000f78:	f2c2 0200 	movt	r2, #8192	; 0x2000
 8000f7c:	460b      	mov	r3, r1
 8000f7e:	ea4f 0343 	mov.w	r3, r3, lsl #1
 8000f82:	185b      	adds	r3, r3, r1
 8000f84:	ea4f 1303 	mov.w	r3, r3, lsl #4
 8000f88:	18d3      	adds	r3, r2, r3
 8000f8a:	f103 0318 	add.w	r3, r3, #24
 8000f8e:	f04f 0204 	mov.w	r2, #4
 8000f92:	715a      	strb	r2, [r3, #5]
/Users/felipeneves/Documents/Projects/Embedded/uLipeRTOS/Debug/../RTOS/uLipe_Task.c:84
void Task_InitBlocks(void)
{
	uint8_t bI;

	//clears all TCBs first:
	for(bI = 0; bI < MAX_TASK_NUMBER; bI++)
 8000f94:	79fb      	ldrb	r3, [r7, #7]
 8000f96:	f103 0301 	add.w	r3, r3, #1
 8000f9a:	71fb      	strb	r3, [r7, #7]
 8000f9c:	79fb      	ldrb	r3, [r7, #7]
 8000f9e:	2b3f      	cmp	r3, #63	; 0x3f
 8000fa0:	d9c3      	bls.n	8000f2a <Task_InitBlocks+0xe>
/Users/felipeneves/Documents/Projects/Embedded/uLipeRTOS/Debug/../RTOS/uLipe_Task.c:98


	}

	//The Idle task is the first end terminator:
	axTaskList[MAX_TASK_NUMBER - 1].NextTask = (taskTCB_t *)END_LIST;
 8000fa2:	f240 3320 	movw	r3, #800	; 0x320
 8000fa6:	f2c2 0300 	movt	r3, #8192	; 0x2000
 8000faa:	f06f 1255 	mvn.w	r2, #5570645	; 0x550055
 8000fae:	f8c3 2bd8 	str.w	r2, [r3, #3032]	; 0xbd8
/Users/felipeneves/Documents/Projects/Embedded/uLipeRTOS/Debug/../RTOS/uLipe_Task.c:100

}
 8000fb2:	f107 0708 	add.w	r7, r7, #8
 8000fb6:	46bd      	mov	sp, r7
 8000fb8:	bd80      	pop	{r7, pc}
 8000fba:	bf00      	nop

08000fbc <Task_Create>:
Task_Create():
/Users/felipeneves/Documents/Projects/Embedded/uLipeRTOS/Debug/../RTOS/uLipe_Task.c:136
os_error_t 	Task_Create	(taskptr_t (*TaskAction),
							os_stack_t *TaskStack,
							uint32_t StackSize,
							uint8_t TaskPriority,
							os_taskname_t *TaskName)
{
 8000fbc:	b590      	push	{r4, r7, lr}
 8000fbe:	b089      	sub	sp, #36	; 0x24
 8000fc0:	af00      	add	r7, sp, #0
 8000fc2:	60f8      	str	r0, [r7, #12]
 8000fc4:	60b9      	str	r1, [r7, #8]
 8000fc6:	607a      	str	r2, [r7, #4]
 8000fc8:	70fb      	strb	r3, [r7, #3]
/Users/felipeneves/Documents/Projects/Embedded/uLipeRTOS/Debug/../RTOS/uLipe_Task.c:144

	//allocates a temporary sREG:
	uint32_t Sreg;

	//Auxiliary counter:
	uint8_t bI = 0;
 8000fca:	f04f 0300 	mov.w	r3, #0
 8000fce:	76fb      	strb	r3, [r7, #27]
/Users/felipeneves/Documents/Projects/Embedded/uLipeRTOS/Debug/../RTOS/uLipe_Task.c:149

	//check parameters:

	//The task method:
	if((taskptr_t *)NULL == TaskAction)
 8000fd0:	68fb      	ldr	r3, [r7, #12]
 8000fd2:	2b00      	cmp	r3, #0
 8000fd4:	d102      	bne.n	8000fdc <Task_Create+0x20>
/Users/felipeneves/Documents/Projects/Embedded/uLipeRTOS/Debug/../RTOS/uLipe_Task.c:152
	{
		//null pointer is not accepted
		return(OS_INVALID_PARAMETER);
 8000fd6:	f04f 030d 	mov.w	r3, #13
 8000fda:	e151      	b.n	8001280 <Task_Create+0x2c4>
/Users/felipeneves/Documents/Projects/Embedded/uLipeRTOS/Debug/../RTOS/uLipe_Task.c:156
	}

	//check the task stack:
	if((os_stack_t *)NULL == TaskStack)
 8000fdc:	68bb      	ldr	r3, [r7, #8]
 8000fde:	2b00      	cmp	r3, #0
 8000fe0:	d102      	bne.n	8000fe8 <Task_Create+0x2c>
/Users/felipeneves/Documents/Projects/Embedded/uLipeRTOS/Debug/../RTOS/uLipe_Task.c:159
	{
		//null stackpointer not, too
		return(OS_INVALID_PARAMETER);
 8000fe2:	f04f 030d 	mov.w	r3, #13
 8000fe6:	e14b      	b.n	8001280 <Task_Create+0x2c4>
/Users/felipeneves/Documents/Projects/Embedded/uLipeRTOS/Debug/../RTOS/uLipe_Task.c:164
	}


	//check stack size
	if(StackSize == 0x00)
 8000fe8:	687b      	ldr	r3, [r7, #4]
 8000fea:	2b00      	cmp	r3, #0
 8000fec:	d102      	bne.n	8000ff4 <Task_Create+0x38>
/Users/felipeneves/Documents/Projects/Embedded/uLipeRTOS/Debug/../RTOS/uLipe_Task.c:167
	{
		//stack size null is not accepted.
		return(OS_INVALID_PARAMETER);
 8000fee:	f04f 030d 	mov.w	r3, #13
 8000ff2:	e145      	b.n	8001280 <Task_Create+0x2c4>
/Users/felipeneves/Documents/Projects/Embedded/uLipeRTOS/Debug/../RTOS/uLipe_Task.c:171
	}

	//check for priority:
	if(0x00 != axTaskList[TaskPriority].EmptyTCB)
 8000ff4:	78f9      	ldrb	r1, [r7, #3]
 8000ff6:	f240 3220 	movw	r2, #800	; 0x320
 8000ffa:	f2c2 0200 	movt	r2, #8192	; 0x2000
 8000ffe:	460b      	mov	r3, r1
 8001000:	ea4f 0343 	mov.w	r3, r3, lsl #1
 8001004:	185b      	adds	r3, r3, r1
 8001006:	ea4f 1303 	mov.w	r3, r3, lsl #4
 800100a:	18d3      	adds	r3, r2, r3
 800100c:	f103 0328 	add.w	r3, r3, #40	; 0x28
 8001010:	799b      	ldrb	r3, [r3, #6]
 8001012:	2b00      	cmp	r3, #0
 8001014:	d002      	beq.n	800101c <Task_Create+0x60>
/Users/felipeneves/Documents/Projects/Embedded/uLipeRTOS/Debug/../RTOS/uLipe_Task.c:174
	{
		//the priority already exists
		return(OS_PRIORITY_INVALID);
 8001016:	f04f 0303 	mov.w	r3, #3
 800101a:	e131      	b.n	8001280 <Task_Create+0x2c4>
/Users/felipeneves/Documents/Projects/Embedded/uLipeRTOS/Debug/../RTOS/uLipe_Task.c:180
	}

	//taskname is not checked since it can be null

	//create a critical section:
	Sreg = Asm_CriticalIn();
 800101c:	f7ff fc89 	bl	8000932 <Asm_CriticalIn>
 8001020:	6178      	str	r0, [r7, #20]
/Users/felipeneves/Documents/Projects/Embedded/uLipeRTOS/Debug/../RTOS/uLipe_Task.c:185

	//fill the free tcb:

	//task stack first:
	axTaskList[TaskPriority].TaskStack =
 8001022:	78f9      	ldrb	r1, [r7, #3]
/Users/felipeneves/Documents/Projects/Embedded/uLipeRTOS/Debug/../RTOS/uLipe_Task.c:186
			(os_stack_t *)(TaskStack + (StackSize>>2));
 8001024:	687b      	ldr	r3, [r7, #4]
 8001026:	ea4f 0393 	mov.w	r3, r3, lsr #2
 800102a:	ea4f 0383 	mov.w	r3, r3, lsl #2
 800102e:	68ba      	ldr	r2, [r7, #8]
 8001030:	18d0      	adds	r0, r2, r3
/Users/felipeneves/Documents/Projects/Embedded/uLipeRTOS/Debug/../RTOS/uLipe_Task.c:185
	Sreg = Asm_CriticalIn();

	//fill the free tcb:

	//task stack first:
	axTaskList[TaskPriority].TaskStack =
 8001032:	f240 3220 	movw	r2, #800	; 0x320
 8001036:	f2c2 0200 	movt	r2, #8192	; 0x2000
 800103a:	460b      	mov	r3, r1
 800103c:	ea4f 0343 	mov.w	r3, r3, lsl #1
 8001040:	185b      	adds	r3, r3, r1
 8001042:	ea4f 1303 	mov.w	r3, r3, lsl #4
 8001046:	18d3      	adds	r3, r2, r3
 8001048:	6018      	str	r0, [r3, #0]
/Users/felipeneves/Documents/Projects/Embedded/uLipeRTOS/Debug/../RTOS/uLipe_Task.c:189
			(os_stack_t *)(TaskStack + (StackSize>>2));

	//The task action:
	axTaskList[TaskPriority].TaskAction =
 800104a:	78f9      	ldrb	r1, [r7, #3]
 800104c:	68f8      	ldr	r0, [r7, #12]
 800104e:	f240 3220 	movw	r2, #800	; 0x320
 8001052:	f2c2 0200 	movt	r2, #8192	; 0x2000
 8001056:	460b      	mov	r3, r1
 8001058:	ea4f 0343 	mov.w	r3, r3, lsl #1
 800105c:	185b      	adds	r3, r3, r1
 800105e:	ea4f 1303 	mov.w	r3, r3, lsl #4
 8001062:	18d3      	adds	r3, r2, r3
 8001064:	f103 0304 	add.w	r3, r3, #4
 8001068:	6018      	str	r0, [r3, #0]
/Users/felipeneves/Documents/Projects/Embedded/uLipeRTOS/Debug/../RTOS/uLipe_Task.c:193
			(taskptr_t *)TaskAction;

	//Priority:
	axTaskList[TaskPriority].TaskPriority =
 800106a:	78f9      	ldrb	r1, [r7, #3]
 800106c:	f240 3220 	movw	r2, #800	; 0x320
 8001070:	f2c2 0200 	movt	r2, #8192	; 0x2000
 8001074:	460b      	mov	r3, r1
 8001076:	ea4f 0343 	mov.w	r3, r3, lsl #1
 800107a:	185b      	adds	r3, r3, r1
 800107c:	ea4f 1303 	mov.w	r3, r3, lsl #4
 8001080:	18d3      	adds	r3, r2, r3
 8001082:	f103 0318 	add.w	r3, r3, #24
 8001086:	78fa      	ldrb	r2, [r7, #3]
 8001088:	711a      	strb	r2, [r3, #4]
/Users/felipeneves/Documents/Projects/Embedded/uLipeRTOS/Debug/../RTOS/uLipe_Task.c:197
			TaskPriority;

	//TaskFlags:
	axTaskList[TaskPriority].TaskFlags  =
 800108a:	78f9      	ldrb	r1, [r7, #3]
 800108c:	f240 3220 	movw	r2, #800	; 0x320
 8001090:	f2c2 0200 	movt	r2, #8192	; 0x2000
 8001094:	460b      	mov	r3, r1
 8001096:	ea4f 0343 	mov.w	r3, r3, lsl #1
 800109a:	185b      	adds	r3, r3, r1
 800109c:	ea4f 1303 	mov.w	r3, r3, lsl #4
 80010a0:	18d3      	adds	r3, r2, r3
 80010a2:	f103 0310 	add.w	r3, r3, #16
 80010a6:	f04f 0201 	mov.w	r2, #1
 80010aa:	601a      	str	r2, [r3, #0]
/Users/felipeneves/Documents/Projects/Embedded/uLipeRTOS/Debug/../RTOS/uLipe_Task.c:201
			TASK_FLAG_IS_FIRST_TIME ;

	//Task time:
	axTaskList[TaskPriority].TaskTime = TICKS;
 80010ac:	78f9      	ldrb	r1, [r7, #3]
 80010ae:	f240 3220 	movw	r2, #800	; 0x320
 80010b2:	f2c2 0200 	movt	r2, #8192	; 0x2000
 80010b6:	460b      	mov	r3, r1
 80010b8:	ea4f 0343 	mov.w	r3, r3, lsl #1
 80010bc:	185b      	adds	r3, r3, r1
 80010be:	ea4f 1303 	mov.w	r3, r3, lsl #4
 80010c2:	18d3      	adds	r3, r2, r3
 80010c4:	f103 0314 	add.w	r3, r3, #20
 80010c8:	f04f 0240 	mov.w	r2, #64	; 0x40
 80010cc:	601a      	str	r2, [r3, #0]
/Users/felipeneves/Documents/Projects/Embedded/uLipeRTOS/Debug/../RTOS/uLipe_Task.c:204

	//Elapsed time between executions:
	axTaskList[TaskPriority].TaskElapsedTime = 0;
 80010ce:	78f9      	ldrb	r1, [r7, #3]
 80010d0:	f240 3220 	movw	r2, #800	; 0x320
 80010d4:	f2c2 0200 	movt	r2, #8192	; 0x2000
 80010d8:	460b      	mov	r3, r1
 80010da:	ea4f 0343 	mov.w	r3, r3, lsl #1
 80010de:	185b      	adds	r3, r3, r1
 80010e0:	ea4f 1303 	mov.w	r3, r3, lsl #4
 80010e4:	18d3      	adds	r3, r2, r3
 80010e6:	f103 0318 	add.w	r3, r3, #24
 80010ea:	f04f 0200 	mov.w	r2, #0
 80010ee:	601a      	str	r2, [r3, #0]
/Users/felipeneves/Documents/Projects/Embedded/uLipeRTOS/Debug/../RTOS/uLipe_Task.c:207

	//Unfree this TCB:
	axTaskList[TaskPriority].EmptyTCB = FILLED;
 80010f0:	78f9      	ldrb	r1, [r7, #3]
 80010f2:	f240 3220 	movw	r2, #800	; 0x320
 80010f6:	f2c2 0200 	movt	r2, #8192	; 0x2000
 80010fa:	460b      	mov	r3, r1
 80010fc:	ea4f 0343 	mov.w	r3, r3, lsl #1
 8001100:	185b      	adds	r3, r3, r1
 8001102:	ea4f 1303 	mov.w	r3, r3, lsl #4
 8001106:	18d3      	adds	r3, r2, r3
 8001108:	f103 0328 	add.w	r3, r3, #40	; 0x28
 800110c:	f04f 02ff 	mov.w	r2, #255	; 0xff
 8001110:	719a      	strb	r2, [r3, #6]
/Users/felipeneves/Documents/Projects/Embedded/uLipeRTOS/Debug/../RTOS/uLipe_Task.c:210

	//Put task in ready state:
	axTaskList[TaskPriority].TaskState = TASK_READY;
 8001112:	78f9      	ldrb	r1, [r7, #3]
 8001114:	f240 3220 	movw	r2, #800	; 0x320
 8001118:	f2c2 0200 	movt	r2, #8192	; 0x2000
 800111c:	460b      	mov	r3, r1
 800111e:	ea4f 0343 	mov.w	r3, r3, lsl #1
 8001122:	185b      	adds	r3, r3, r1
 8001124:	ea4f 1303 	mov.w	r3, r3, lsl #4
 8001128:	18d3      	adds	r3, r2, r3
 800112a:	f103 0318 	add.w	r3, r3, #24
 800112e:	f04f 0200 	mov.w	r2, #0
 8001132:	715a      	strb	r2, [r3, #5]
/Users/felipeneves/Documents/Projects/Embedded/uLipeRTOS/Debug/../RTOS/uLipe_Task.c:213

	//create it initial stack frame:
	Core_StackFrameCreate((taskTCB_t*) &axTaskList[TaskPriority]);
 8001134:	78fa      	ldrb	r2, [r7, #3]
 8001136:	4613      	mov	r3, r2
 8001138:	ea4f 0343 	mov.w	r3, r3, lsl #1
 800113c:	189b      	adds	r3, r3, r2
 800113e:	ea4f 1303 	mov.w	r3, r3, lsl #4
 8001142:	f240 3220 	movw	r2, #800	; 0x320
 8001146:	f2c2 0200 	movt	r2, #8192	; 0x2000
 800114a:	189b      	adds	r3, r3, r2
 800114c:	4618      	mov	r0, r3
 800114e:	f7ff fd85 	bl	8000c5c <Core_StackFrameCreate>
/Users/felipeneves/Documents/Projects/Embedded/uLipeRTOS/Debug/../RTOS/uLipe_Task.c:216

	//Put this TCB on ready list:
	Core_ReadyTask(TaskPriority);
 8001152:	78fb      	ldrb	r3, [r7, #3]
 8001154:	4618      	mov	r0, r3
 8001156:	f7ff fc53 	bl	8000a00 <Core_ReadyTask>
/Users/felipeneves/Documents/Projects/Embedded/uLipeRTOS/Debug/../RTOS/uLipe_Task.c:219

	//check if task name is a null pointer:
	if((os_taskname_t *)NULL == TaskName)
 800115a:	6b3b      	ldr	r3, [r7, #48]	; 0x30
 800115c:	2b00      	cmp	r3, #0
 800115e:	d111      	bne.n	8001184 <Task_Create+0x1c8>
/Users/felipeneves/Documents/Projects/Embedded/uLipeRTOS/Debug/../RTOS/uLipe_Task.c:222
	{
		//then put a '?' as a name:
		axTaskList[TaskPriority].TaskName[0] = '?';
 8001160:	78f9      	ldrb	r1, [r7, #3]
 8001162:	f240 3220 	movw	r2, #800	; 0x320
 8001166:	f2c2 0200 	movt	r2, #8192	; 0x2000
 800116a:	460b      	mov	r3, r1
 800116c:	ea4f 0343 	mov.w	r3, r3, lsl #1
 8001170:	185b      	adds	r3, r3, r1
 8001172:	ea4f 1303 	mov.w	r3, r3, lsl #4
 8001176:	18d3      	adds	r3, r2, r3
 8001178:	f103 0318 	add.w	r3, r3, #24
 800117c:	f04f 023f 	mov.w	r2, #63	; 0x3f
 8001180:	719a      	strb	r2, [r3, #6]
 8001182:	e028      	b.n	80011d6 <Task_Create+0x21a>
/Users/felipeneves/Documents/Projects/Embedded/uLipeRTOS/Debug/../RTOS/uLipe_Task.c:227
	}
	else
	{
		//Copy the task name to the tcb vector
		for(bI = 0; bI < 20; bI++)
 8001184:	f04f 0300 	mov.w	r3, #0
 8001188:	76fb      	strb	r3, [r7, #27]
 800118a:	e01f      	b.n	80011cc <Task_Create+0x210>
/Users/felipeneves/Documents/Projects/Embedded/uLipeRTOS/Debug/../RTOS/uLipe_Task.c:229
		{
			axTaskList[TaskPriority].TaskName[bI] =
 800118c:	78f9      	ldrb	r1, [r7, #3]
 800118e:	7efc      	ldrb	r4, [r7, #27]
/Users/felipeneves/Documents/Projects/Embedded/uLipeRTOS/Debug/../RTOS/uLipe_Task.c:230
					*TaskName++;
 8001190:	6b3b      	ldr	r3, [r7, #48]	; 0x30
 8001192:	7818      	ldrb	r0, [r3, #0]
/Users/felipeneves/Documents/Projects/Embedded/uLipeRTOS/Debug/../RTOS/uLipe_Task.c:229
	else
	{
		//Copy the task name to the tcb vector
		for(bI = 0; bI < 20; bI++)
		{
			axTaskList[TaskPriority].TaskName[bI] =
 8001194:	f240 3220 	movw	r2, #800	; 0x320
 8001198:	f2c2 0200 	movt	r2, #8192	; 0x2000
 800119c:	460b      	mov	r3, r1
 800119e:	ea4f 0343 	mov.w	r3, r3, lsl #1
 80011a2:	185b      	adds	r3, r3, r1
 80011a4:	ea4f 1303 	mov.w	r3, r3, lsl #4
 80011a8:	18d3      	adds	r3, r2, r3
 80011aa:	191b      	adds	r3, r3, r4
 80011ac:	f103 0318 	add.w	r3, r3, #24
 80011b0:	4602      	mov	r2, r0
 80011b2:	719a      	strb	r2, [r3, #6]
/Users/felipeneves/Documents/Projects/Embedded/uLipeRTOS/Debug/../RTOS/uLipe_Task.c:230
					*TaskName++;
 80011b4:	6b3b      	ldr	r3, [r7, #48]	; 0x30
 80011b6:	f103 0301 	add.w	r3, r3, #1
 80011ba:	633b      	str	r3, [r7, #48]	; 0x30
/Users/felipeneves/Documents/Projects/Embedded/uLipeRTOS/Debug/../RTOS/uLipe_Task.c:234

			//if the name is less than the tcb field
			//interrupt the loop
			if('\0' == *TaskName)
 80011bc:	6b3b      	ldr	r3, [r7, #48]	; 0x30
 80011be:	781b      	ldrb	r3, [r3, #0]
 80011c0:	2b00      	cmp	r3, #0
 80011c2:	d007      	beq.n	80011d4 <Task_Create+0x218>
/Users/felipeneves/Documents/Projects/Embedded/uLipeRTOS/Debug/../RTOS/uLipe_Task.c:227
		axTaskList[TaskPriority].TaskName[0] = '?';
	}
	else
	{
		//Copy the task name to the tcb vector
		for(bI = 0; bI < 20; bI++)
 80011c4:	7efb      	ldrb	r3, [r7, #27]
 80011c6:	f103 0301 	add.w	r3, r3, #1
 80011ca:	76fb      	strb	r3, [r7, #27]
 80011cc:	7efb      	ldrb	r3, [r7, #27]
 80011ce:	2b13      	cmp	r3, #19
 80011d0:	d9dc      	bls.n	800118c <Task_Create+0x1d0>
 80011d2:	e000      	b.n	80011d6 <Task_Create+0x21a>
/Users/felipeneves/Documents/Projects/Embedded/uLipeRTOS/Debug/../RTOS/uLipe_Task.c:236

			//if the name is less than the tcb field
			//interrupt the loop
			if('\0' == *TaskName)
			{
				break;
 80011d4:	bf00      	nop
/Users/felipeneves/Documents/Projects/Embedded/uLipeRTOS/Debug/../RTOS/uLipe_Task.c:244
	}

	//Link the TCB:

	//check if the task is the IdleTask:
	if((LESS_PRIORITY) == TaskPriority)
 80011d6:	78fb      	ldrb	r3, [r7, #3]
 80011d8:	2b3f      	cmp	r3, #63	; 0x3f
 80011da:	d111      	bne.n	8001200 <Task_Create+0x244>
/Users/felipeneves/Documents/Projects/Embedded/uLipeRTOS/Debug/../RTOS/uLipe_Task.c:247
	{
		//then puts the list terminator on its next task:
		axTaskList[TaskPriority].NextTask =
 80011dc:	78f9      	ldrb	r1, [r7, #3]
 80011de:	f240 3220 	movw	r2, #800	; 0x320
 80011e2:	f2c2 0200 	movt	r2, #8192	; 0x2000
 80011e6:	460b      	mov	r3, r1
 80011e8:	ea4f 0343 	mov.w	r3, r3, lsl #1
 80011ec:	185b      	adds	r3, r3, r1
 80011ee:	ea4f 1303 	mov.w	r3, r3, lsl #4
 80011f2:	18d3      	adds	r3, r2, r3
 80011f4:	f103 0308 	add.w	r3, r3, #8
 80011f8:	f06f 1255 	mvn.w	r2, #5570645	; 0x550055
 80011fc:	601a      	str	r2, [r3, #0]
 80011fe:	e03a      	b.n	8001276 <Task_Create+0x2ba>
/Users/felipeneves/Documents/Projects/Embedded/uLipeRTOS/Debug/../RTOS/uLipe_Task.c:253
				(taskTCB_t *)END_LIST;
	}
	//else, lets link on task list:
	else
	{
		pTCB = (taskTCB_t*)&axTaskList[LESS_PRIORITY];
 8001200:	4b22      	ldr	r3, [pc, #136]	; (800128c <Task_Create+0x2d0>)
 8001202:	61fb      	str	r3, [r7, #28]
/Users/felipeneves/Documents/Projects/Embedded/uLipeRTOS/Debug/../RTOS/uLipe_Task.c:256

		//search for task list terminator:
		while((taskTCB_t *)END_LIST != pTCB->NextTask)
 8001204:	e002      	b.n	800120c <Task_Create+0x250>
/Users/felipeneves/Documents/Projects/Embedded/uLipeRTOS/Debug/../RTOS/uLipe_Task.c:258
		{
			pTCB = (taskTCB_t *)pTCB->NextTask;
 8001206:	69fb      	ldr	r3, [r7, #28]
 8001208:	689b      	ldr	r3, [r3, #8]
 800120a:	61fb      	str	r3, [r7, #28]
/Users/felipeneves/Documents/Projects/Embedded/uLipeRTOS/Debug/../RTOS/uLipe_Task.c:256
	else
	{
		pTCB = (taskTCB_t*)&axTaskList[LESS_PRIORITY];

		//search for task list terminator:
		while((taskTCB_t *)END_LIST != pTCB->NextTask)
 800120c:	69fb      	ldr	r3, [r7, #28]
 800120e:	689a      	ldr	r2, [r3, #8]
 8001210:	f06f 1355 	mvn.w	r3, #5570645	; 0x550055
 8001214:	429a      	cmp	r2, r3
 8001216:	d1f6      	bne.n	8001206 <Task_Create+0x24a>
/Users/felipeneves/Documents/Projects/Embedded/uLipeRTOS/Debug/../RTOS/uLipe_Task.c:262
		{
			pTCB = (taskTCB_t *)pTCB->NextTask;
		}

		//when find, attach the tcb on list:
		pTCB->NextTask = (taskTCB_t *)&axTaskList[TaskPriority];
 8001218:	78fa      	ldrb	r2, [r7, #3]
 800121a:	4613      	mov	r3, r2
 800121c:	ea4f 0343 	mov.w	r3, r3, lsl #1
 8001220:	189b      	adds	r3, r3, r2
 8001222:	ea4f 1303 	mov.w	r3, r3, lsl #4
 8001226:	f240 3220 	movw	r2, #800	; 0x320
 800122a:	f2c2 0200 	movt	r2, #8192	; 0x2000
 800122e:	189a      	adds	r2, r3, r2
 8001230:	69fb      	ldr	r3, [r7, #28]
 8001232:	609a      	str	r2, [r3, #8]
/Users/felipeneves/Documents/Projects/Embedded/uLipeRTOS/Debug/../RTOS/uLipe_Task.c:265

		//attach previous task:
		axTaskList[TaskPriority].PrevTask = (taskTCB_t *)pTCB;
 8001234:	78f9      	ldrb	r1, [r7, #3]
 8001236:	f240 3220 	movw	r2, #800	; 0x320
 800123a:	f2c2 0200 	movt	r2, #8192	; 0x2000
 800123e:	460b      	mov	r3, r1
 8001240:	ea4f 0343 	mov.w	r3, r3, lsl #1
 8001244:	185b      	adds	r3, r3, r1
 8001246:	ea4f 1303 	mov.w	r3, r3, lsl #4
 800124a:	18d3      	adds	r3, r2, r3
 800124c:	f103 030c 	add.w	r3, r3, #12
 8001250:	69fa      	ldr	r2, [r7, #28]
 8001252:	601a      	str	r2, [r3, #0]
/Users/felipeneves/Documents/Projects/Embedded/uLipeRTOS/Debug/../RTOS/uLipe_Task.c:268

		//puts the terminator on the current position:
		axTaskList[TaskPriority].NextTask = (taskTCB_t *)END_LIST;
 8001254:	78f9      	ldrb	r1, [r7, #3]
 8001256:	f240 3220 	movw	r2, #800	; 0x320
 800125a:	f2c2 0200 	movt	r2, #8192	; 0x2000
 800125e:	460b      	mov	r3, r1
 8001260:	ea4f 0343 	mov.w	r3, r3, lsl #1
 8001264:	185b      	adds	r3, r3, r1
 8001266:	ea4f 1303 	mov.w	r3, r3, lsl #4
 800126a:	18d3      	adds	r3, r2, r3
 800126c:	f103 0308 	add.w	r3, r3, #8
 8001270:	f06f 1255 	mvn.w	r2, #5570645	; 0x550055
 8001274:	601a      	str	r2, [r3, #0]
/Users/felipeneves/Documents/Projects/Embedded/uLipeRTOS/Debug/../RTOS/uLipe_Task.c:273
	}


	//finishes the critical section:
	Asm_CriticalOut(Sreg);
 8001276:	6978      	ldr	r0, [r7, #20]
 8001278:	f7ff fb5f 	bl	800093a <Asm_CriticalOut>
/Users/felipeneves/Documents/Projects/Embedded/uLipeRTOS/Debug/../RTOS/uLipe_Task.c:276

	//return a ok, if all gone well :)
	return(OS_OK);
 800127c:	f04f 0300 	mov.w	r3, #0
/Users/felipeneves/Documents/Projects/Embedded/uLipeRTOS/Debug/../RTOS/uLipe_Task.c:277
}
 8001280:	4618      	mov	r0, r3
 8001282:	f107 0724 	add.w	r7, r7, #36	; 0x24
 8001286:	46bd      	mov	sp, r7
 8001288:	bd90      	pop	{r4, r7, pc}
 800128a:	bf00      	nop
 800128c:	20000ef0 	.word	0x20000ef0

08001290 <memset>:
memset():
 8001290:	b4f0      	push	{r4, r5, r6, r7}
 8001292:	0784      	lsls	r4, r0, #30
 8001294:	4603      	mov	r3, r0
 8001296:	f000 808e 	beq.w	80013b6 <memset+0x126>
 800129a:	1e54      	subs	r4, r2, #1
 800129c:	2a00      	cmp	r2, #0
 800129e:	f000 8088 	beq.w	80013b2 <memset+0x122>
 80012a2:	07e5      	lsls	r5, r4, #31
 80012a4:	b2ce      	uxtb	r6, r1
 80012a6:	d411      	bmi.n	80012cc <memset+0x3c>
 80012a8:	461a      	mov	r2, r3
 80012aa:	1e67      	subs	r7, r4, #1
 80012ac:	f802 6b01 	strb.w	r6, [r2], #1
 80012b0:	4613      	mov	r3, r2
 80012b2:	4615      	mov	r5, r2
 80012b4:	0792      	lsls	r2, r2, #30
 80012b6:	d00f      	beq.n	80012d8 <memset+0x48>
 80012b8:	2c00      	cmp	r4, #0
 80012ba:	d07a      	beq.n	80013b2 <memset+0x122>
 80012bc:	f803 6b01 	strb.w	r6, [r3], #1
 80012c0:	079a      	lsls	r2, r3, #30
 80012c2:	463c      	mov	r4, r7
 80012c4:	461d      	mov	r5, r3
 80012c6:	d007      	beq.n	80012d8 <memset+0x48>
 80012c8:	3c01      	subs	r4, #1
 80012ca:	e7ed      	b.n	80012a8 <memset+0x18>
 80012cc:	4603      	mov	r3, r0
 80012ce:	f803 6b01 	strb.w	r6, [r3], #1
 80012d2:	079a      	lsls	r2, r3, #30
 80012d4:	461d      	mov	r5, r3
 80012d6:	d1f7      	bne.n	80012c8 <memset+0x38>
 80012d8:	2c03      	cmp	r4, #3
 80012da:	d952      	bls.n	8001382 <memset+0xf2>
 80012dc:	b2ce      	uxtb	r6, r1
 80012de:	ea46 2706 	orr.w	r7, r6, r6, lsl #8
 80012e2:	2c0f      	cmp	r4, #15
 80012e4:	ea47 4307 	orr.w	r3, r7, r7, lsl #16
 80012e8:	d92d      	bls.n	8001346 <memset+0xb6>
 80012ea:	f1a4 0210 	sub.w	r2, r4, #16
 80012ee:	4617      	mov	r7, r2
 80012f0:	2f0f      	cmp	r7, #15
 80012f2:	f3c2 1600 	ubfx	r6, r2, #4, #1
 80012f6:	602b      	str	r3, [r5, #0]
 80012f8:	606b      	str	r3, [r5, #4]
 80012fa:	60ab      	str	r3, [r5, #8]
 80012fc:	60eb      	str	r3, [r5, #12]
 80012fe:	f105 0210 	add.w	r2, r5, #16
 8001302:	d916      	bls.n	8001332 <memset+0xa2>
 8001304:	b13e      	cbz	r6, 8001316 <memset+0x86>
 8001306:	3f10      	subs	r7, #16
 8001308:	6013      	str	r3, [r2, #0]
 800130a:	6053      	str	r3, [r2, #4]
 800130c:	6093      	str	r3, [r2, #8]
 800130e:	60d3      	str	r3, [r2, #12]
 8001310:	3210      	adds	r2, #16
 8001312:	2f0f      	cmp	r7, #15
 8001314:	d90d      	bls.n	8001332 <memset+0xa2>
 8001316:	3f20      	subs	r7, #32
 8001318:	f102 0610 	add.w	r6, r2, #16
 800131c:	6013      	str	r3, [r2, #0]
 800131e:	6053      	str	r3, [r2, #4]
 8001320:	6093      	str	r3, [r2, #8]
 8001322:	60d3      	str	r3, [r2, #12]
 8001324:	6113      	str	r3, [r2, #16]
 8001326:	6153      	str	r3, [r2, #20]
 8001328:	6193      	str	r3, [r2, #24]
 800132a:	61d3      	str	r3, [r2, #28]
 800132c:	3220      	adds	r2, #32
 800132e:	2f0f      	cmp	r7, #15
 8001330:	d8f1      	bhi.n	8001316 <memset+0x86>
 8001332:	f1a4 0210 	sub.w	r2, r4, #16
 8001336:	f022 020f 	bic.w	r2, r2, #15
 800133a:	f004 040f 	and.w	r4, r4, #15
 800133e:	3210      	adds	r2, #16
 8001340:	2c03      	cmp	r4, #3
 8001342:	4415      	add	r5, r2
 8001344:	d91d      	bls.n	8001382 <memset+0xf2>
 8001346:	1f27      	subs	r7, r4, #4
 8001348:	463e      	mov	r6, r7
 800134a:	462a      	mov	r2, r5
 800134c:	2e03      	cmp	r6, #3
 800134e:	f842 3b04 	str.w	r3, [r2], #4
 8001352:	f3c7 0780 	ubfx	r7, r7, #2, #1
 8001356:	d90d      	bls.n	8001374 <memset+0xe4>
 8001358:	b127      	cbz	r7, 8001364 <memset+0xd4>
 800135a:	3e04      	subs	r6, #4
 800135c:	2e03      	cmp	r6, #3
 800135e:	f842 3b04 	str.w	r3, [r2], #4
 8001362:	d907      	bls.n	8001374 <memset+0xe4>
 8001364:	4617      	mov	r7, r2
 8001366:	3e08      	subs	r6, #8
 8001368:	f847 3b04 	str.w	r3, [r7], #4
 800136c:	6053      	str	r3, [r2, #4]
 800136e:	1d3a      	adds	r2, r7, #4
 8001370:	2e03      	cmp	r6, #3
 8001372:	d8f7      	bhi.n	8001364 <memset+0xd4>
 8001374:	1f23      	subs	r3, r4, #4
 8001376:	f023 0203 	bic.w	r2, r3, #3
 800137a:	1d13      	adds	r3, r2, #4
 800137c:	f004 0403 	and.w	r4, r4, #3
 8001380:	18ed      	adds	r5, r5, r3
 8001382:	b1b4      	cbz	r4, 80013b2 <memset+0x122>
 8001384:	462b      	mov	r3, r5
 8001386:	b2c9      	uxtb	r1, r1
 8001388:	f803 1b01 	strb.w	r1, [r3], #1
 800138c:	192c      	adds	r4, r5, r4
 800138e:	43ed      	mvns	r5, r5
 8001390:	1962      	adds	r2, r4, r5
 8001392:	42a3      	cmp	r3, r4
 8001394:	f002 0501 	and.w	r5, r2, #1
 8001398:	d00b      	beq.n	80013b2 <memset+0x122>
 800139a:	b11d      	cbz	r5, 80013a4 <memset+0x114>
 800139c:	f803 1b01 	strb.w	r1, [r3], #1
 80013a0:	42a3      	cmp	r3, r4
 80013a2:	d006      	beq.n	80013b2 <memset+0x122>
 80013a4:	461a      	mov	r2, r3
 80013a6:	f802 1b01 	strb.w	r1, [r2], #1
 80013aa:	7059      	strb	r1, [r3, #1]
 80013ac:	1c53      	adds	r3, r2, #1
 80013ae:	42a3      	cmp	r3, r4
 80013b0:	d1f8      	bne.n	80013a4 <memset+0x114>
 80013b2:	bcf0      	pop	{r4, r5, r6, r7}
 80013b4:	4770      	bx	lr
 80013b6:	4605      	mov	r5, r0
 80013b8:	4614      	mov	r4, r2
 80013ba:	e78d      	b.n	80012d8 <memset+0x48>
 80013bc:	5464654c 	.word	0x5464654c
 80013c0:	006b7361 	.word	0x006b7361
 80013c4:	74747542 	.word	0x74747542
 80013c8:	61546e6f 	.word	0x61546e6f
 80013cc:	00006b73 	.word	0x00006b73

080013d0 <abBitPrioMask>:
 80013d0:	08040201 80402010                       ..... @.

080013d8 <abLeastBitMap>:
 80013d8:	00010000 00010002 00010003 00010002     ................
 80013e8:	00010004 00010002 00010003 00010002     ................
 80013f8:	00010005 00010002 00010003 00010002     ................
 8001408:	00010004 00010002 00010003 00010002     ................
 8001418:	00010006 00010002 00010003 00010002     ................
 8001428:	00010004 00010002 00010003 00010002     ................
 8001438:	00010005 00010002 00010003 00010002     ................
 8001448:	00010004 00010002 00010003 00010002     ................
 8001458:	00010007 00010002 00010003 00010002     ................
 8001468:	00010004 00010002 00010003 00010002     ................
 8001478:	00010005 00010002 00010003 00010002     ................
 8001488:	00010004 00010002 00010003 00010002     ................
 8001498:	00010006 00010002 00010003 00010002     ................
 80014a8:	00010004 00010002 00010003 00010002     ................
 80014b8:	00010005 00010002 00010003 00010002     ................
 80014c8:	00010004 00010002 00010003 00010002     ................
 80014d8:	70694c75 6c644965 73615465 0000006b     uLipeIdleTask...
