
uLipeRTOS.elf:     file format elf32-littlearm
uLipeRTOS.elf
architecture: arm, flags 0x00000112:
EXEC_P, HAS_SYMS, D_PAGED
start address 0x08000189

Program Header:
    LOAD off    0x00008000 vaddr 0x08000000 paddr 0x08000000 align 2**15
         filesz 0x00000f88 memsz 0x00000f88 flags rwx
    LOAD off    0x00010000 vaddr 0x20000000 paddr 0x08000f88 align 2**15
         filesz 0x00000038 memsz 0x00000bb4 flags rw-
private flags = 5000002: [Version5 EABI] [has entry point]

Sections:
Idx Name          Size      VMA       LMA       File off  Algn  Flags
  0 .isr_vector   00000284  08000000  08000000  00008000  2**2  CONTENTS, ALLOC, LOAD, READONLY, CODE
  1 ._inits       00000004  08000284  08000284  00008284  2**2  CONTENTS, ALLOC, LOAD, DATA
  2 .text         00000d00  08000288  08000288  00008288  2**2  CONTENTS, ALLOC, LOAD, READONLY, CODE
  3 .data         00000038  20000000  08000f88  00010000  2**2  CONTENTS, ALLOC, LOAD, DATA
  4 .bss          00000a7c  20000038  08000fc0  00010038  2**2  ALLOC
  5 ._check_stack 00000100  20000ab4  08001a3c  00010038  2**0  ALLOC
  6 .comment      00000070  00000000  00000000  00010038  2**0  CONTENTS, READONLY
  7 .ARM.attributes 00000031  00000000  00000000  000100a8  2**0  CONTENTS, READONLY
  8 .debug_aranges 00000200  00000000  00000000  000100e0  2**3  CONTENTS, READONLY, DEBUGGING
  9 .debug_info   000019af  00000000  00000000  000102e0  2**0  CONTENTS, READONLY, DEBUGGING
 10 .debug_abbrev 00000793  00000000  00000000  00011c8f  2**0  CONTENTS, READONLY, DEBUGGING
 11 .debug_line   00001c9b  00000000  00000000  00012422  2**0  CONTENTS, READONLY, DEBUGGING
 12 .debug_frame  000004d8  00000000  00000000  000140c0  2**2  CONTENTS, READONLY, DEBUGGING
 13 .debug_str    0005ff93  00000000  00000000  00014598  2**0  CONTENTS, READONLY, DEBUGGING
 14 .debug_loc    000007ee  00000000  00000000  0007452b  2**0  CONTENTS, READONLY, DEBUGGING
 15 .debug_ranges 00000170  00000000  00000000  00074d19  2**0  CONTENTS, READONLY, DEBUGGING
 16 .debug_macro  0000f4ac  00000000  00000000  00074e89  2**0  CONTENTS, READONLY, DEBUGGING
SYMBOL TABLE:
08000000 l    d  .isr_vector	00000000 .isr_vector
08000284 l    d  ._inits	00000000 ._inits
08000288 l    d  .text	00000000 .text
20000000 l    d  .data	00000000 .data
20000038 l    d  .bss	00000000 .bss
20000ab4 l    d  ._check_stack	00000000 ._check_stack
00000000 l    d  .comment	00000000 .comment
00000000 l    d  .ARM.attributes	00000000 .ARM.attributes
00000000 l    d  .debug_aranges	00000000 .debug_aranges
00000000 l    d  .debug_info	00000000 .debug_info
00000000 l    d  .debug_abbrev	00000000 .debug_abbrev
00000000 l    d  .debug_line	00000000 .debug_line
00000000 l    d  .debug_frame	00000000 .debug_frame
00000000 l    d  .debug_str	00000000 .debug_str
00000000 l    d  .debug_loc	00000000 .debug_loc
00000000 l    d  .debug_ranges	00000000 .debug_ranges
00000000 l    d  .debug_macro	00000000 .debug_macro
00000000 l    df *ABS*	00000000 vectors_stm32f4xx.c
00000000 l    df *ABS*	00000000 startup_cm.c
00000000 l    df *ABS*	00000000 main.c
00000000 l    df *ABS*	00000000 tasks.c
2000005c l     O .bss	00000004 counter1.4209
20000060 l     O .bss	00000004 counter2.4210
20000064 l     O .bss	00000004 counter3.4211
20000050 l     O .bss	00000004 counter1.4216
20000054 l     O .bss	00000004 counter2.4217
20000058 l     O .bss	00000004 counter3.4218
2000004c l     O .bss	00000004 counter.4223
20000048 l     O .bss	00000004 counter.4227
20000044 l     O .bss	00000004 counter.4231
20000040 l     O .bss	00000004 counter.4235
2000003c l     O .bss	00000004 counter.4239
00000000 l    df *ABS*	00000000 startup_stm32f4xx.c
00000000 l    df *ABS*	00000000 system_stm32f4xx.c
080008e8 l     F .text	00000186 SetSysClock
08000af6 l       .text	00000000 FIRST_CHANGE
08000b16 l       .text	00000000 SECOND_CHANGE
08000af0 l       .text	00000000 NO_SAVE
00000000 l    df *ABS*	00000000 uLipe_Task.c
00000000 l    df *ABS*	00000000 memset.c
08000288 l       ._inits	00000000 __fini_array_end
08000288 l       ._inits	00000000 __fini_array_start
08000288 l       ._inits	00000000 __init_array_end
08000288 l       ._inits	00000000 __preinit_array_end
08000288 l       ._inits	00000000 __init_array_start
08000284 l       ._inits	00000000 __preinit_array_start
0800022c  w    F .isr_vector	00000006 RTC_Alarm_IRQHandler
0800022c  w    F .isr_vector	00000006 HASH_RNG_IRQHandler
0800022c  w    F .isr_vector	00000006 EXTI2_IRQHandler
0800022c  w    F .isr_vector	00000006 TIM8_CC_IRQHandler
0800068c g     F .text	0000002a TaskTry3
0800026c  w    F .isr_vector	00000006 DebugMon_Handler
08000284 g     O ._inits	00000004 p_system_init
20000000 g     O .data	00000007 Try
20000000 g       .data	00000000 __data_start__
2001fc00 g       *ABS*	00000000 _Heap_Limit
20000174 g     O .bss	00000100 TaskTryStack8
0800022c  w    F .isr_vector	00000006 TIM1_CC_IRQHandler
0800022c  w    F .isr_vector	00000006 DMA2_Stream5_IRQHandler
0800023c  w    F .isr_vector	00000010 HardFault_Handler
0800022c  w    F .isr_vector	00000006 DMA1_Stream5_IRQHandler
08000710 g     F .text	0000002a TaskTry6
20000068 g     O .bss	00000004 CurrentTaskBlock
080005dc g     F .text	00000046 SysTick_Handler
0800022c  w    F .isr_vector	00000006 PVD_IRQHandler
0800022c  w    F .isr_vector	00000006 SDIO_IRQHandler
0800022c  w    F .isr_vector	00000006 TAMP_STAMP_IRQHandler
00000400 g       *ABS*	00000000 _Main_Stack_Size
08000f88 g       *ABS*	00000000 _sidata
08000aba g     F .text	00000006 PendSV_Handler
08000234  w    F .isr_vector	00000006 NMI_Handler
08000f88 g       *ABS*	00000000 __exidx_end
080001d4 g     F .isr_vector	00000056 system_init
0800022c  w    F .isr_vector	00000006 CAN2_RX1_IRQHandler
0800022c  w    F .isr_vector	00000006 EXTI3_IRQHandler
08000b70 g     F .text	000001f0 Task_Create
08000a96 g     F .text	00000000 Asm_CriticalIn
20000ab4 g       ._check_stack	00000000 _Heap_Begin
0800022c  w    F .isr_vector	00000006 TIM8_TRG_COM_TIM14_IRQHandler
0800022c  w    F .isr_vector	00000006 TIM1_UP_TIM10_IRQHandler
08000f88 g       *ABS*	00000000 _etext
20000038 g       .bss	00000000 _sbss
2001fc00 g       *ABS*	00000000 __Main_Stack_Limit
0800022c  w    F .isr_vector	00000006 TIM8_UP_TIM13_IRQHandler
0800022c  w    F .isr_vector	00000006 I2C3_ER_IRQHandler
20000274 g     O .bss	00000100 TaskTryStack6
20000018 g     O .data	00000008 Try4
0800022c  w    F .isr_vector	00000006 EXTI0_IRQHandler
0800022c  w    F .isr_vector	00000006 I2C2_EV_IRQHandler
20000ab4 g       ._check_stack	00000000 _noinit
0800022c  w    F .isr_vector	00000006 DMA1_Stream2_IRQHandler
0800022c  w    F .isr_vector	00000006 CAN1_RX0_IRQHandler
0800022c  w    F .isr_vector	00000006 FPU_IRQHandler
20000070 g     O .bss	00000001 ID
0800022c  w    F .isr_vector	00000006 OTG_HS_WKUP_IRQHandler
0800025c  w    F .isr_vector	00000006 UsageFault_Handler
0800022c  w    F .isr_vector	00000006 CAN2_SCE_IRQHandler
0800022c  w    F .isr_vector	00000006 DMA2_Stream2_IRQHandler
20000038 g       .bss	00000000 __bss_start__
20000038 g     O .bss	00000004 TestTCB
20000000 g       .data	00000000 _sdata
0800022c  w    F .isr_vector	00000006 SPI1_IRQHandler
20000874 g     O .bss	00000100 IdleTaskStack
20000374 g     O .bss	00000100 TaskTryStack7
0800022c  w    F .isr_vector	00000006 TIM6_DAC_IRQHandler
0800022c  w    F .isr_vector	00000006 TIM1_BRK_TIM9_IRQHandler
0800022c  w    F .isr_vector	00000006 DCMI_IRQHandler
0800022c  w    F .isr_vector	00000006 CAN2_RX0_IRQHandler
20000010 g     O .data	00000008 Try3
08000a9a g     F .text	00000000 Asm_CriticalOut
08000f88 g       *ABS*	00000000 __exidx_start
080006b8 g     F .text	0000002a TaskTry4
0800022c  w    F .isr_vector	00000006 DMA2_Stream3_IRQHandler
08000768 g     F .text	0000008e __libc_init_array
00000400 g       *ABS*	00000000 __Main_Stack_Size
08000a9e g     F .text	00000000 Asm_IntLevelContextChange
0800022c  w    F .isr_vector	00000006 USART6_IRQHandler
08000f80 g     O .text	00000008 IdleName
0800022c  w    F .isr_vector	00000006 USART3_IRQHandler
20000474 g     O .bss	00000100 TaskTryStack2
0800022c  w    F .isr_vector	00000006 CRYP_IRQHandler
080007f8 g     F .text	0000004e __libc_fini_array
20000ab4 g       .bss	00000000 _ebss
08000188  w    F .isr_vector	0000004c Reset_Handler
0800022c  w    F .isr_vector	00000006 CAN1_RX1_IRQHandler
08000658 g     F .text	00000034 TaskTry2
0800022c  w    F .isr_vector	00000006 UART5_IRQHandler
0800022c  w    F .isr_vector	00000006 DMA2_Stream0_IRQHandler
0800022c  w    F .isr_vector	00000006 TIM4_IRQHandler
20000574 g     O .bss	00000100 TaskTryStack4
0800022c  w    F .isr_vector	00000006 I2C1_EV_IRQHandler
0800022c  w    F .isr_vector	00000006 DMA1_Stream6_IRQHandler
20000038 g       .data	00000000 __data_end__
0800022c  w    F .isr_vector	00000006 DMA1_Stream1_IRQHandler
0800022c  w    F .isr_vector	00000006 UART4_IRQHandler
20000ab4 g       .bss	00000000 __bss_end__
0800022c  w    F .isr_vector	00000006 TIM3_IRQHandler
0800022c  w    F .isr_vector	00000006 RCC_IRQHandler
0800022c  w    F .isr_vector	00000006 TIM8_BRK_TIM12_IRQHandler
0800022c  w    F .isr_vector	00000006 Default_Handler
08000e00 g     F .text	00000048 Task_Query
0800022c  w    F .isr_vector	00000006 EXTI15_10_IRQHandler
00000100 g       *ABS*	00000000 _Minimum_Stack_Size
0800022c  w    F .isr_vector	00000006 ADC_IRQHandler
20000974 g     O .bss	00000140 TaskBlockList
20000020 g     O .data	00000008 Try5
20000ab4 g       ._check_stack	00000000 _end_noinit
0800022c  w    F .isr_vector	00000006 DMA1_Stream7_IRQHandler
08000b54 g     F .text	0000001a Task_InitBlocks
0800022c  w    F .isr_vector	00000006 TIM7_IRQHandler
0800022c  w    F .isr_vector	00000006 CAN2_TX_IRQHandler
0800022c  w    F .isr_vector	00000006 TIM5_IRQHandler
0800022c  w    F .isr_vector	00000006 DMA2_Stream7_IRQHandler
0800022c  w    F .isr_vector	00000006 I2C3_EV_IRQHandler
20000028 g     O .data	00000008 Try6
0800022c  w    F .isr_vector	00000006 EXTI9_5_IRQHandler
0800022c  w    F .isr_vector	00000006 RTC_WKUP_IRQHandler
0800022c  w    F .isr_vector	00000006 ETH_WKUP_IRQHandler
0800022c  w    F .isr_vector	00000006 SPI2_IRQHandler
0800022c  w    F .isr_vector	00000006 OTG_HS_EP1_IN_IRQHandler
08000e54 g     F .text	0000012c memset
0800024c  w    F .isr_vector	00000006 MemManage_Handler
08000288 g     F .text	00000354 main
0800022c  w    F .isr_vector	00000006 DMA1_Stream0_IRQHandler
0800022c  w    F .isr_vector	00000006 CAN1_TX_IRQHandler
08000a70 g     F .text	00000000 Asm_LowLevelTickInit
08000264  w    F .isr_vector	00000006 SVC_Handler
20000674 g     O .bss	00000100 TaskTryStack3
0800022c  w    F .isr_vector	00000006 EXTI4_IRQHandler
0800073c g     F .text	0000002a TaskTry7
08000854 g     F .text	00000092 SystemInit
08000e48 g     F .text	0000000a Task_Idle
0800022c  w    F .isr_vector	00000006 FSMC_IRQHandler
0800022c  w    F .isr_vector	00000006 ETH_IRQHandler
2000006c g     O .bss	00000004 HighReadyTaskBlock
0800022c  w    F .isr_vector	00000006 OTG_HS_EP1_OUT_IRQHandler
0800022c  w    F .isr_vector	00000006 WWDG_IRQHandler
20000074 g     O .bss	00000100 TaskTryStack
08000624 g     F .text	00000034 TaskTry
0800022c  w    F .isr_vector	00000006 TIM2_IRQHandler
0800022c  w    F .isr_vector	00000006 OTG_FS_WKUP_IRQHandler
0800022c  w    F .isr_vector	00000006 TIM1_TRG_COM_TIM11_IRQHandler
0800022c  w    F .isr_vector	00000006 OTG_HS_IRQHandler
20020000 g       *ABS*	00000000 _estack
20020000 g       *ABS*	00000000 __stack
0800022c  w    F .isr_vector	00000006 EXTI1_IRQHandler
20000038 g       .data	00000000 _edata
08000d60 g     F .text	000000a0 Task_GetID
08000aac g     F .text	00000000 Asm_TaskLevelContextChange
0800022c  w    F .isr_vector	00000006 USART2_IRQHandler
08000000 g     O .isr_vector	00000188 g_pfnVectors
0800022c  w    F .isr_vector	00000006 I2C2_ER_IRQHandler
20000774 g     O .bss	00000100 TaskTryStack5
0800022c  w    F .isr_vector	00000006 DMA2_Stream1_IRQHandler
0800022c  w    F .isr_vector	00000006 CAN1_SCE_IRQHandler
0800022c  w    F .isr_vector	00000006 FLASH_IRQHandler
08000848  w    F .text	0000000a _exit
0800022c  w    F .isr_vector	00000006 DMA2_Stream4_IRQHandler
08000254  w    F .isr_vector	00000006 BusFault_Handler
0800022c  w    F .isr_vector	00000006 USART1_IRQHandler
0800022c  w    F .isr_vector	00000006 OTG_FS_IRQHandler
20000030 g     O .data	00000008 Try7
0800022c  w    F .isr_vector	00000006 SPI3_IRQHandler
0800022c  w    F .isr_vector	00000006 DMA1_Stream4_IRQHandler
00000000         *UND*	00000000 TaskQuery
0800022c  w    F .isr_vector	00000006 I2C1_ER_IRQHandler
080006e4 g     F .text	0000002a TaskTry5
20000008 g     O .data	00000008 Try2
0800022c  w    F .isr_vector	00000006 DMA2_Stream6_IRQHandler
0800022c  w    F .isr_vector	00000006 DMA1_Stream3_IRQHandler



Disassembly of section .isr_vector:

08000000 <g_pfnVectors>:
 8000000:	00 00 02 20 89 01 00 08 35 02 00 08 3d 02 00 08     ... ....5...=...
 8000010:	4d 02 00 08 55 02 00 08 5d 02 00 08 00 00 00 00     M...U...].......
	...
 800002c:	65 02 00 08 6d 02 00 08 00 00 00 00 bb 0a 00 08     e...m...........
 800003c:	dd 05 00 08 2d 02 00 08 2d 02 00 08 2d 02 00 08     ....-...-...-...
 800004c:	2d 02 00 08 2d 02 00 08 2d 02 00 08 2d 02 00 08     -...-...-...-...
 800005c:	2d 02 00 08 2d 02 00 08 2d 02 00 08 2d 02 00 08     -...-...-...-...
 800006c:	2d 02 00 08 2d 02 00 08 2d 02 00 08 2d 02 00 08     -...-...-...-...
 800007c:	2d 02 00 08 2d 02 00 08 2d 02 00 08 2d 02 00 08     -...-...-...-...
 800008c:	2d 02 00 08 2d 02 00 08 2d 02 00 08 2d 02 00 08     -...-...-...-...
 800009c:	2d 02 00 08 2d 02 00 08 2d 02 00 08 2d 02 00 08     -...-...-...-...
 80000ac:	2d 02 00 08 2d 02 00 08 2d 02 00 08 2d 02 00 08     -...-...-...-...
 80000bc:	2d 02 00 08 2d 02 00 08 2d 02 00 08 2d 02 00 08     -...-...-...-...
 80000cc:	2d 02 00 08 2d 02 00 08 2d 02 00 08 2d 02 00 08     -...-...-...-...
 80000dc:	2d 02 00 08 2d 02 00 08 2d 02 00 08 2d 02 00 08     -...-...-...-...
 80000ec:	2d 02 00 08 2d 02 00 08 2d 02 00 08 2d 02 00 08     -...-...-...-...
 80000fc:	2d 02 00 08 2d 02 00 08 2d 02 00 08 2d 02 00 08     -...-...-...-...
 800010c:	2d 02 00 08 2d 02 00 08 2d 02 00 08 2d 02 00 08     -...-...-...-...
 800011c:	2d 02 00 08 2d 02 00 08 2d 02 00 08 2d 02 00 08     -...-...-...-...
 800012c:	2d 02 00 08 2d 02 00 08 2d 02 00 08 2d 02 00 08     -...-...-...-...
 800013c:	2d 02 00 08 2d 02 00 08 2d 02 00 08 2d 02 00 08     -...-...-...-...
 800014c:	2d 02 00 08 2d 02 00 08 2d 02 00 08 2d 02 00 08     -...-...-...-...
 800015c:	2d 02 00 08 2d 02 00 08 2d 02 00 08 2d 02 00 08     -...-...-...-...
 800016c:	2d 02 00 08 2d 02 00 08 2d 02 00 08 2d 02 00 08     -...-...-...-...
 800017c:	2d 02 00 08 2d 02 00 08 2d 02 00 08                 -...-...-...

08000188 <Reset_Handler>:
Reset_Handler():
/Users/felipeneves/Documents/Projects/Embedded/uLipeRTOS/Debug/../libs/CMSIS/src/startup_cm.c:217
}

// This is the place where Cortex-M core will go immediately after reset.
void __attribute__ ((section(".after_vectors")))
Reset_Handler(void)
{
 8000188:	b580      	push	{r7, lr}
 800018a:	b084      	sub	sp, #16
 800018c:	af00      	add	r7, sp, #0
 800018e:	f240 0338 	movw	r3, #56	; 0x38
 8000192:	f2c2 0300 	movt	r3, #8192	; 0x2000
 8000196:	60bb      	str	r3, [r7, #8]
 8000198:	f640 23b4 	movw	r3, #2740	; 0xab4
 800019c:	f2c2 0300 	movt	r3, #8192	; 0x2000
 80001a0:	607b      	str	r3, [r7, #4]
bss_init():
/Users/felipeneves/Documents/Projects/Embedded/uLipeRTOS/Debug/../libs/CMSIS/src/startup_cm.c:118
__attribute__((always_inline))
bss_init(unsigned int* section_begin, unsigned int* section_end)
{
  // Iterate and clear word by word.
  // It is assumed that the pointers are word aligned.
  unsigned int *p = section_begin;
 80001a2:	68bb      	ldr	r3, [r7, #8]
 80001a4:	603b      	str	r3, [r7, #0]
 80001a6:	e007      	b.n	80001b8 <Reset_Handler+0x30>
/Users/felipeneves/Documents/Projects/Embedded/uLipeRTOS/Debug/../libs/CMSIS/src/startup_cm.c:120
  while (p < section_end)
    *p++ = 0;
 80001a8:	683b      	ldr	r3, [r7, #0]
 80001aa:	f04f 0200 	mov.w	r2, #0
 80001ae:	601a      	str	r2, [r3, #0]
 80001b0:	683b      	ldr	r3, [r7, #0]
 80001b2:	f103 0304 	add.w	r3, r3, #4
 80001b6:	603b      	str	r3, [r7, #0]
/Users/felipeneves/Documents/Projects/Embedded/uLipeRTOS/Debug/../libs/CMSIS/src/startup_cm.c:119
bss_init(unsigned int* section_begin, unsigned int* section_end)
{
  // Iterate and clear word by word.
  // It is assumed that the pointers are word aligned.
  unsigned int *p = section_begin;
  while (p < section_end)
 80001b8:	687a      	ldr	r2, [r7, #4]
 80001ba:	683b      	ldr	r3, [r7, #0]
 80001bc:	429a      	cmp	r2, r3
 80001be:	d8f3      	bhi.n	80001a8 <Reset_Handler+0x20>
Reset_Handler():
/Users/felipeneves/Documents/Projects/Embedded/uLipeRTOS/Debug/../libs/CMSIS/src/startup_cm.c:227
  // Zero fill the bss segment
  bss_init(&__bss_start__, &__bss_end__);

  // Call the standard library initialisation (mandatory, SystemInit()
  // and C++ static constructors are called from here).
  __libc_init_array();
 80001c0:	f000 fad2 	bl	8000768 <__libc_init_array>
/Users/felipeneves/Documents/Projects/Embedded/uLipeRTOS/Debug/../libs/CMSIS/src/startup_cm.c:230

  // Call the main entry point, and save the exit code.
  int r = main();
 80001c4:	f000 f860 	bl	8000288 <__fini_array_end>
 80001c8:	60f8      	str	r0, [r7, #12]
/Users/felipeneves/Documents/Projects/Embedded/uLipeRTOS/Debug/../libs/CMSIS/src/startup_cm.c:233

  // Run the static destructors.
  __libc_fini_array();
 80001ca:	f000 fb15 	bl	80007f8 <__libc_fini_array>
/Users/felipeneves/Documents/Projects/Embedded/uLipeRTOS/Debug/../libs/CMSIS/src/startup_cm.c:238

  // On test platforms, like semihosting, this can be used to inform
  // the host on the test result.
  // On embedded platforms, usually reset the processor.
  _exit(r);
 80001ce:	68f8      	ldr	r0, [r7, #12]
 80001d0:	f000 fb3a 	bl	8000848 <_exit>

080001d4 <system_init>:
system_init():
/Users/felipeneves/Documents/Projects/Embedded/uLipeRTOS/Debug/../libs/CMSIS/src/startup_cm.c:248

// System initialisation, executed before constructors.
void
__attribute__((section(".after_vectors")))
system_init()
{
 80001d4:	b580      	push	{r7, lr}
 80001d6:	b084      	sub	sp, #16
 80001d8:	af00      	add	r7, sp, #0
 80001da:	f640 7388 	movw	r3, #3976	; 0xf88
 80001de:	f6c0 0300 	movt	r3, #2048	; 0x800
 80001e2:	60fb      	str	r3, [r7, #12]
 80001e4:	f240 0300 	movw	r3, #0
 80001e8:	f2c2 0300 	movt	r3, #8192	; 0x2000
 80001ec:	60bb      	str	r3, [r7, #8]
 80001ee:	f240 0338 	movw	r3, #56	; 0x38
 80001f2:	f2c2 0300 	movt	r3, #8192	; 0x2000
 80001f6:	607b      	str	r3, [r7, #4]
data_init():
/Users/felipeneves/Documents/Projects/Embedded/uLipeRTOS/Debug/../libs/CMSIS/src/startup_cm.c:105
data_init(unsigned int* from, unsigned int* section_begin,
    unsigned int* section_end)
{
  // Iterate and copy word by word.
  // It is assumed that the pointers are word aligned.
  unsigned int *p = section_begin;
 80001f8:	68bb      	ldr	r3, [r7, #8]
 80001fa:	603b      	str	r3, [r7, #0]
 80001fc:	e00b      	b.n	8000216 <system_init+0x42>
/Users/felipeneves/Documents/Projects/Embedded/uLipeRTOS/Debug/../libs/CMSIS/src/startup_cm.c:107
  while (p < section_end)
    *p++ = *from++;
 80001fe:	68fb      	ldr	r3, [r7, #12]
 8000200:	681a      	ldr	r2, [r3, #0]
 8000202:	683b      	ldr	r3, [r7, #0]
 8000204:	601a      	str	r2, [r3, #0]
 8000206:	683b      	ldr	r3, [r7, #0]
 8000208:	f103 0304 	add.w	r3, r3, #4
 800020c:	603b      	str	r3, [r7, #0]
 800020e:	68fb      	ldr	r3, [r7, #12]
 8000210:	f103 0304 	add.w	r3, r3, #4
 8000214:	60fb      	str	r3, [r7, #12]
/Users/felipeneves/Documents/Projects/Embedded/uLipeRTOS/Debug/../libs/CMSIS/src/startup_cm.c:106
    unsigned int* section_end)
{
  // Iterate and copy word by word.
  // It is assumed that the pointers are word aligned.
  unsigned int *p = section_begin;
  while (p < section_end)
 8000216:	687a      	ldr	r2, [r7, #4]
 8000218:	683b      	ldr	r3, [r7, #0]
 800021a:	429a      	cmp	r2, r3
 800021c:	d8ef      	bhi.n	80001fe <system_init+0x2a>
system_init():
/Users/felipeneves/Documents/Projects/Embedded/uLipeRTOS/Debug/../libs/CMSIS/src/startup_cm.c:256
  // so we must be sure it is executed somewhere.
  // (for example librdimon)
  data_init(&_sidata, &_sdata, &_edata);

  // Call the CSMSIS system initialisation routine
  SystemInit();
 800021e:	f000 fb19 	bl	8000854 <SystemInit>
/Users/felipeneves/Documents/Projects/Embedded/uLipeRTOS/Debug/../libs/CMSIS/src/startup_cm.c:257
}
 8000222:	f107 0710 	add.w	r7, r7, #16
 8000226:	46bd      	mov	sp, r7
 8000228:	bd80      	pop	{r7, pc}
 800022a:	bf00      	nop

0800022c <ADC_IRQHandler>:
Default_Handler():
/Users/felipeneves/Documents/Projects/Embedded/uLipeRTOS/Debug/../libs/CMSIS/src/vectors_stm32f4xx.c:433
//
//*****************************************************************************

void __attribute__ ((section(".after_vectors")))
Default_Handler(void)
{
 800022c:	b480      	push	{r7}
 800022e:	af00      	add	r7, sp, #0
/Users/felipeneves/Documents/Projects/Embedded/uLipeRTOS/Debug/../libs/CMSIS/src/vectors_stm32f4xx.c:436
  while (1)
    {
    }
 8000230:	e7fe      	b.n	8000230 <ADC_IRQHandler+0x4>
DMA1_Stream3_IRQHandler():
 8000232:	bf00      	nop

08000234 <NMI_Handler>:
NMI_Handler():
/Users/felipeneves/Documents/Projects/Embedded/uLipeRTOS/Debug/../libs/CMSIS/src/vectors_stm32f4xx.c:445
// Default exception handlers. Override the ones here by defining your own
// handler routines in your application code.
//*****************************************************************************
void __attribute__ ((section(".after_vectors")))
NMI_Handler(void)
{
 8000234:	b480      	push	{r7}
 8000236:	af00      	add	r7, sp, #0
/Users/felipeneves/Documents/Projects/Embedded/uLipeRTOS/Debug/../libs/CMSIS/src/vectors_stm32f4xx.c:448
  while (1)
    {
    }
 8000238:	e7fe      	b.n	8000238 <NMI_Handler+0x4>
 800023a:	bf00      	nop

0800023c <HardFault_Handler>:
HardFault_Handler():
/Users/felipeneves/Documents/Projects/Embedded/uLipeRTOS/Debug/../libs/CMSIS/src/vectors_stm32f4xx.c:453
}

void __attribute__ ((section(".after_vectors")))
HardFault_Handler(void)
{
 800023c:	b480      	push	{r7}
 800023e:	b0c3      	sub	sp, #268	; 0x10c
 8000240:	af00      	add	r7, sp, #0
/Users/felipeneves/Documents/Projects/Embedded/uLipeRTOS/Debug/../libs/CMSIS/src/vectors_stm32f4xx.c:458
  //debuggers:

 unsigned long  FaultStack[64];
 unsigned long *StackPointer;
 unsigned long  i= 0;
 8000242:	f04f 0300 	mov.w	r3, #0
 8000246:	f8c7 3104 	str.w	r3, [r7, #260]	; 0x104
/Users/felipeneves/Documents/Projects/Embedded/uLipeRTOS/Debug/../libs/CMSIS/src/vectors_stm32f4xx.c:463

 while (1)
    {

    }
 800024a:	e7fe      	b.n	800024a <HardFault_Handler+0xe>

0800024c <MemManage_Handler>:
MemManage_Handler():
/Users/felipeneves/Documents/Projects/Embedded/uLipeRTOS/Debug/../libs/CMSIS/src/vectors_stm32f4xx.c:468
}

void __attribute__ ((section(".after_vectors")))
MemManage_Handler(void)
{
 800024c:	b480      	push	{r7}
 800024e:	af00      	add	r7, sp, #0
/Users/felipeneves/Documents/Projects/Embedded/uLipeRTOS/Debug/../libs/CMSIS/src/vectors_stm32f4xx.c:471
  while (1)
    {
    }
 8000250:	e7fe      	b.n	8000250 <MemManage_Handler+0x4>
 8000252:	bf00      	nop

08000254 <BusFault_Handler>:
BusFault_Handler():
/Users/felipeneves/Documents/Projects/Embedded/uLipeRTOS/Debug/../libs/CMSIS/src/vectors_stm32f4xx.c:476
}

void __attribute__ ((section(".after_vectors")))
BusFault_Handler(void)
{
 8000254:	b480      	push	{r7}
 8000256:	af00      	add	r7, sp, #0
/Users/felipeneves/Documents/Projects/Embedded/uLipeRTOS/Debug/../libs/CMSIS/src/vectors_stm32f4xx.c:479
  while (1)
    {
    }
 8000258:	e7fe      	b.n	8000258 <BusFault_Handler+0x4>
 800025a:	bf00      	nop

0800025c <UsageFault_Handler>:
UsageFault_Handler():
/Users/felipeneves/Documents/Projects/Embedded/uLipeRTOS/Debug/../libs/CMSIS/src/vectors_stm32f4xx.c:484
}

void __attribute__ ((section(".after_vectors")))
UsageFault_Handler(void)
{
 800025c:	b480      	push	{r7}
 800025e:	af00      	add	r7, sp, #0
/Users/felipeneves/Documents/Projects/Embedded/uLipeRTOS/Debug/../libs/CMSIS/src/vectors_stm32f4xx.c:487
  while (1)
    {
    }
 8000260:	e7fe      	b.n	8000260 <UsageFault_Handler+0x4>
 8000262:	bf00      	nop

08000264 <SVC_Handler>:
SVC_Handler():
/Users/felipeneves/Documents/Projects/Embedded/uLipeRTOS/Debug/../libs/CMSIS/src/vectors_stm32f4xx.c:492
}

void __attribute__ ((section(".after_vectors")))
SVC_Handler(void)
{
 8000264:	b480      	push	{r7}
 8000266:	af00      	add	r7, sp, #0
/Users/felipeneves/Documents/Projects/Embedded/uLipeRTOS/Debug/../libs/CMSIS/src/vectors_stm32f4xx.c:495
  while (1)
    {
    }
 8000268:	e7fe      	b.n	8000268 <SVC_Handler+0x4>
 800026a:	bf00      	nop

0800026c <DebugMon_Handler>:
DebugMon_Handler():
/Users/felipeneves/Documents/Projects/Embedded/uLipeRTOS/Debug/../libs/CMSIS/src/vectors_stm32f4xx.c:500
}

void __attribute__ ((section(".after_vectors")))
DebugMon_Handler(void)
{
 800026c:	b480      	push	{r7}
 800026e:	af00      	add	r7, sp, #0
/Users/felipeneves/Documents/Projects/Embedded/uLipeRTOS/Debug/../libs/CMSIS/src/vectors_stm32f4xx.c:503
  while (1)
    {
    }
 8000270:	e7fe      	b.n	8000270 <DebugMon_Handler+0x4>
 8000272:	bf00      	nop
PendSV_Handler():
/Users/felipeneves/Documents/Projects/Embedded/uLipeRTOS/Debug/../libs/CMSIS/src/vectors_stm32f4xx.c:508
}

void __attribute__ ((section(".after_vectors")))
PendSV_Handler(void)
{
 8000274:	b480      	push	{r7}
 8000276:	af00      	add	r7, sp, #0
/Users/felipeneves/Documents/Projects/Embedded/uLipeRTOS/Debug/../libs/CMSIS/src/vectors_stm32f4xx.c:511
  while (1)
    {
    }
 8000278:	e7fe      	b.n	8000278 <DebugMon_Handler+0xc>
DebugMon_Handler():
 800027a:	bf00      	nop
SysTick_Handler():
/Users/felipeneves/Documents/Projects/Embedded/uLipeRTOS/Debug/../libs/CMSIS/src/vectors_stm32f4xx.c:516
}

void __attribute__ ((section(".after_vectors")))
SysTick_Handler(void)
{
 800027c:	b480      	push	{r7}
 800027e:	af00      	add	r7, sp, #0
/Users/felipeneves/Documents/Projects/Embedded/uLipeRTOS/Debug/../libs/CMSIS/src/vectors_stm32f4xx.c:519
  while (1)
    {
    }
 8000280:	e7fe      	b.n	8000280 <DebugMon_Handler+0x14>
DebugMon_Handler():
 8000282:	bf00      	nop

Disassembly of section .text:

08000288 <main>:
main():
/Users/felipeneves/Documents/Projects/Embedded/uLipeRTOS/Debug/../src/main.c:67

volatile os_error_t  Error = OS_OK; //cria um handles de erro

int
main(void)
{
 8000288:	b580      	push	{r7, lr}
 800028a:	b082      	sub	sp, #8
 800028c:	af02      	add	r7, sp, #8
/Users/felipeneves/Documents/Projects/Embedded/uLipeRTOS/Debug/../src/main.c:71



	Task_InitBlocks();
 800028e:	f000 fc61 	bl	8000b54 <Task_InitBlocks>
/Users/felipeneves/Documents/Projects/Embedded/uLipeRTOS/Debug/../src/main.c:73

	Task_Create(&TaskTry, &TaskTryStack, 0 , &Try, sizeof(Try),sizeof(TaskTryStack));
 8000292:	f04f 0307 	mov.w	r3, #7
 8000296:	9300      	str	r3, [sp, #0]
 8000298:	f44f 7380 	mov.w	r3, #256	; 0x100
 800029c:	9301      	str	r3, [sp, #4]
 800029e:	f240 6025 	movw	r0, #1573	; 0x625
 80002a2:	f6c0 0000 	movt	r0, #2048	; 0x800
 80002a6:	f240 0174 	movw	r1, #116	; 0x74
 80002aa:	f2c2 0100 	movt	r1, #8192	; 0x2000
 80002ae:	f04f 0200 	mov.w	r2, #0
 80002b2:	f240 0300 	movw	r3, #0
 80002b6:	f2c2 0300 	movt	r3, #8192	; 0x2000
 80002ba:	f000 fc59 	bl	8000b70 <Task_Create>
/Users/felipeneves/Documents/Projects/Embedded/uLipeRTOS/Debug/../src/main.c:74
	Task_Create(&TaskTry2, &TaskTryStack2, 1 , &Try2, sizeof(Try2),sizeof(TaskTryStack));
 80002be:	f04f 0308 	mov.w	r3, #8
 80002c2:	9300      	str	r3, [sp, #0]
 80002c4:	f44f 7380 	mov.w	r3, #256	; 0x100
 80002c8:	9301      	str	r3, [sp, #4]
 80002ca:	f240 6059 	movw	r0, #1625	; 0x659
 80002ce:	f6c0 0000 	movt	r0, #2048	; 0x800
 80002d2:	f240 4174 	movw	r1, #1140	; 0x474
 80002d6:	f2c2 0100 	movt	r1, #8192	; 0x2000
 80002da:	f04f 0201 	mov.w	r2, #1
 80002de:	f240 0308 	movw	r3, #8
 80002e2:	f2c2 0300 	movt	r3, #8192	; 0x2000
 80002e6:	f000 fc43 	bl	8000b70 <Task_Create>
/Users/felipeneves/Documents/Projects/Embedded/uLipeRTOS/Debug/../src/main.c:75
	Task_Create(&TaskTry3, &TaskTryStack3, 3 , &Try3, sizeof(Try2),sizeof(TaskTryStack));
 80002ea:	f04f 0308 	mov.w	r3, #8
 80002ee:	9300      	str	r3, [sp, #0]
 80002f0:	f44f 7380 	mov.w	r3, #256	; 0x100
 80002f4:	9301      	str	r3, [sp, #4]
 80002f6:	f240 608d 	movw	r0, #1677	; 0x68d
 80002fa:	f6c0 0000 	movt	r0, #2048	; 0x800
 80002fe:	f240 6174 	movw	r1, #1652	; 0x674
 8000302:	f2c2 0100 	movt	r1, #8192	; 0x2000
 8000306:	f04f 0203 	mov.w	r2, #3
 800030a:	f240 0310 	movw	r3, #16
 800030e:	f2c2 0300 	movt	r3, #8192	; 0x2000
 8000312:	f000 fc2d 	bl	8000b70 <Task_Create>
/Users/felipeneves/Documents/Projects/Embedded/uLipeRTOS/Debug/../src/main.c:76
	Task_Create(&TaskTry4, &TaskTryStack4, 9 , &Try4, sizeof(Try2),sizeof(TaskTryStack));
 8000316:	f04f 0308 	mov.w	r3, #8
 800031a:	9300      	str	r3, [sp, #0]
 800031c:	f44f 7380 	mov.w	r3, #256	; 0x100
 8000320:	9301      	str	r3, [sp, #4]
 8000322:	f240 60b9 	movw	r0, #1721	; 0x6b9
 8000326:	f6c0 0000 	movt	r0, #2048	; 0x800
 800032a:	f240 5174 	movw	r1, #1396	; 0x574
 800032e:	f2c2 0100 	movt	r1, #8192	; 0x2000
 8000332:	f04f 0209 	mov.w	r2, #9
 8000336:	f240 0318 	movw	r3, #24
 800033a:	f2c2 0300 	movt	r3, #8192	; 0x2000
 800033e:	f000 fc17 	bl	8000b70 <Task_Create>
/Users/felipeneves/Documents/Projects/Embedded/uLipeRTOS/Debug/../src/main.c:77
	Task_Create(&TaskTry5, &TaskTryStack5, 7 , &Try5, sizeof(Try2),sizeof(TaskTryStack));
 8000342:	f04f 0308 	mov.w	r3, #8
 8000346:	9300      	str	r3, [sp, #0]
 8000348:	f44f 7380 	mov.w	r3, #256	; 0x100
 800034c:	9301      	str	r3, [sp, #4]
 800034e:	f240 60e5 	movw	r0, #1765	; 0x6e5
 8000352:	f6c0 0000 	movt	r0, #2048	; 0x800
 8000356:	f240 7174 	movw	r1, #1908	; 0x774
 800035a:	f2c2 0100 	movt	r1, #8192	; 0x2000
 800035e:	f04f 0207 	mov.w	r2, #7
 8000362:	f240 0320 	movw	r3, #32
 8000366:	f2c2 0300 	movt	r3, #8192	; 0x2000
 800036a:	f000 fc01 	bl	8000b70 <Task_Create>
/Users/felipeneves/Documents/Projects/Embedded/uLipeRTOS/Debug/../src/main.c:78
	Task_Create(&TaskTry6, &TaskTryStack6, 2 , &Try6, sizeof(Try2),sizeof(TaskTryStack));
 800036e:	f04f 0308 	mov.w	r3, #8
 8000372:	9300      	str	r3, [sp, #0]
 8000374:	f44f 7380 	mov.w	r3, #256	; 0x100
 8000378:	9301      	str	r3, [sp, #4]
 800037a:	f240 7011 	movw	r0, #1809	; 0x711
 800037e:	f6c0 0000 	movt	r0, #2048	; 0x800
 8000382:	f240 2174 	movw	r1, #628	; 0x274
 8000386:	f2c2 0100 	movt	r1, #8192	; 0x2000
 800038a:	f04f 0202 	mov.w	r2, #2
 800038e:	f240 0328 	movw	r3, #40	; 0x28
 8000392:	f2c2 0300 	movt	r3, #8192	; 0x2000
 8000396:	f000 fbeb 	bl	8000b70 <Task_Create>
/Users/felipeneves/Documents/Projects/Embedded/uLipeRTOS/Debug/../src/main.c:79
	Task_Create(&TaskTry7, &TaskTryStack7, 12 , &Try7, sizeof(Try2),sizeof(TaskTryStack));
 800039a:	f04f 0308 	mov.w	r3, #8
 800039e:	9300      	str	r3, [sp, #0]
 80003a0:	f44f 7380 	mov.w	r3, #256	; 0x100
 80003a4:	9301      	str	r3, [sp, #4]
 80003a6:	f240 703d 	movw	r0, #1853	; 0x73d
 80003aa:	f6c0 0000 	movt	r0, #2048	; 0x800
 80003ae:	f240 3174 	movw	r1, #884	; 0x374
 80003b2:	f2c2 0100 	movt	r1, #8192	; 0x2000
 80003b6:	f04f 020c 	mov.w	r2, #12
 80003ba:	f240 0330 	movw	r3, #48	; 0x30
 80003be:	f2c2 0300 	movt	r3, #8192	; 0x2000
 80003c2:	f000 fbd5 	bl	8000b70 <Task_Create>
/Users/felipeneves/Documents/Projects/Embedded/uLipeRTOS/Debug/../src/main.c:85





	CurrentTaskBlock = Task_Query(Task_GetID(&Try2, sizeof(Try2)));
 80003c6:	f240 0008 	movw	r0, #8
 80003ca:	f2c2 0000 	movt	r0, #8192	; 0x2000
 80003ce:	f04f 0108 	mov.w	r1, #8
 80003d2:	f000 fcc5 	bl	8000d60 <Task_GetID>
 80003d6:	4603      	mov	r3, r0
 80003d8:	4618      	mov	r0, r3
 80003da:	f000 fd11 	bl	8000e00 <Task_Query>
 80003de:	4602      	mov	r2, r0
 80003e0:	f240 0368 	movw	r3, #104	; 0x68
 80003e4:	f2c2 0300 	movt	r3, #8192	; 0x2000
 80003e8:	601a      	str	r2, [r3, #0]
/Users/felipeneves/Documents/Projects/Embedded/uLipeRTOS/Debug/../src/main.c:86
	HighReadyTaskBlock = Task_Query(Task_GetID(&Try, sizeof(Try)));
 80003ea:	f240 0000 	movw	r0, #0
 80003ee:	f2c2 0000 	movt	r0, #8192	; 0x2000
 80003f2:	f04f 0107 	mov.w	r1, #7
 80003f6:	f000 fcb3 	bl	8000d60 <Task_GetID>
 80003fa:	4603      	mov	r3, r0
 80003fc:	4618      	mov	r0, r3
 80003fe:	f000 fcff 	bl	8000e00 <Task_Query>
 8000402:	4602      	mov	r2, r0
 8000404:	f240 036c 	movw	r3, #108	; 0x6c
 8000408:	f2c2 0300 	movt	r3, #8192	; 0x2000
 800040c:	601a      	str	r2, [r3, #0]
/Users/felipeneves/Documents/Projects/Embedded/uLipeRTOS/Debug/../src/main.c:88

	TestTCB = HighReadyTaskBlock;
 800040e:	f240 036c 	movw	r3, #108	; 0x6c
 8000412:	f2c2 0300 	movt	r3, #8192	; 0x2000
 8000416:	681a      	ldr	r2, [r3, #0]
 8000418:	f240 0338 	movw	r3, #56	; 0x38
 800041c:	f2c2 0300 	movt	r3, #8192	; 0x2000
 8000420:	601a      	str	r2, [r3, #0]
/Users/felipeneves/Documents/Projects/Embedded/uLipeRTOS/Debug/../src/main.c:93

	//os_stack_t *TempStack = (os_stack_t *)HighReadyTaskBlock->TaskStack;

	//cria um stack frame para HighReady:
	*--HighReadyTaskBlock->TaskStack = 0x01000000; //status registers
 8000422:	f240 036c 	movw	r3, #108	; 0x6c
 8000426:	f2c2 0300 	movt	r3, #8192	; 0x2000
 800042a:	681b      	ldr	r3, [r3, #0]
 800042c:	699a      	ldr	r2, [r3, #24]
 800042e:	f1a2 0204 	sub.w	r2, r2, #4
 8000432:	619a      	str	r2, [r3, #24]
 8000434:	699b      	ldr	r3, [r3, #24]
 8000436:	f04f 7280 	mov.w	r2, #16777216	; 0x1000000
 800043a:	601a      	str	r2, [r3, #0]
/Users/felipeneves/Documents/Projects/Embedded/uLipeRTOS/Debug/../src/main.c:94
	*--HighReadyTaskBlock->TaskStack = (taskptr_t *)HighReadyTaskBlock->TaskAction;//PC
 800043c:	f240 036c 	movw	r3, #108	; 0x6c
 8000440:	f2c2 0300 	movt	r3, #8192	; 0x2000
 8000444:	681b      	ldr	r3, [r3, #0]
 8000446:	699a      	ldr	r2, [r3, #24]
 8000448:	f1a2 0204 	sub.w	r2, r2, #4
 800044c:	619a      	str	r2, [r3, #24]
 800044e:	699a      	ldr	r2, [r3, #24]
 8000450:	f240 036c 	movw	r3, #108	; 0x6c
 8000454:	f2c2 0300 	movt	r3, #8192	; 0x2000
 8000458:	681b      	ldr	r3, [r3, #0]
 800045a:	69db      	ldr	r3, [r3, #28]
 800045c:	6013      	str	r3, [r2, #0]
/Users/felipeneves/Documents/Projects/Embedded/uLipeRTOS/Debug/../src/main.c:95
	*--HighReadyTaskBlock->TaskStack = 0xFFFFFFFD;
 800045e:	f240 036c 	movw	r3, #108	; 0x6c
 8000462:	f2c2 0300 	movt	r3, #8192	; 0x2000
 8000466:	681b      	ldr	r3, [r3, #0]
 8000468:	699a      	ldr	r2, [r3, #24]
 800046a:	f1a2 0204 	sub.w	r2, r2, #4
 800046e:	619a      	str	r2, [r3, #24]
 8000470:	699b      	ldr	r3, [r3, #24]
 8000472:	f06f 0202 	mvn.w	r2, #2
 8000476:	601a      	str	r2, [r3, #0]
/Users/felipeneves/Documents/Projects/Embedded/uLipeRTOS/Debug/../src/main.c:96
	*--HighReadyTaskBlock->TaskStack = 0x00;
 8000478:	f240 036c 	movw	r3, #108	; 0x6c
 800047c:	f2c2 0300 	movt	r3, #8192	; 0x2000
 8000480:	681b      	ldr	r3, [r3, #0]
 8000482:	699a      	ldr	r2, [r3, #24]
 8000484:	f1a2 0204 	sub.w	r2, r2, #4
 8000488:	619a      	str	r2, [r3, #24]
 800048a:	699b      	ldr	r3, [r3, #24]
 800048c:	f04f 0200 	mov.w	r2, #0
 8000490:	601a      	str	r2, [r3, #0]
/Users/felipeneves/Documents/Projects/Embedded/uLipeRTOS/Debug/../src/main.c:97
	*--HighReadyTaskBlock->TaskStack = 0x00;
 8000492:	f240 036c 	movw	r3, #108	; 0x6c
 8000496:	f2c2 0300 	movt	r3, #8192	; 0x2000
 800049a:	681b      	ldr	r3, [r3, #0]
 800049c:	699a      	ldr	r2, [r3, #24]
 800049e:	f1a2 0204 	sub.w	r2, r2, #4
 80004a2:	619a      	str	r2, [r3, #24]
 80004a4:	699b      	ldr	r3, [r3, #24]
 80004a6:	f04f 0200 	mov.w	r2, #0
 80004aa:	601a      	str	r2, [r3, #0]
/Users/felipeneves/Documents/Projects/Embedded/uLipeRTOS/Debug/../src/main.c:98
	*--HighReadyTaskBlock->TaskStack = 0x00;
 80004ac:	f240 036c 	movw	r3, #108	; 0x6c
 80004b0:	f2c2 0300 	movt	r3, #8192	; 0x2000
 80004b4:	681b      	ldr	r3, [r3, #0]
 80004b6:	699a      	ldr	r2, [r3, #24]
 80004b8:	f1a2 0204 	sub.w	r2, r2, #4
 80004bc:	619a      	str	r2, [r3, #24]
 80004be:	699b      	ldr	r3, [r3, #24]
 80004c0:	f04f 0200 	mov.w	r2, #0
 80004c4:	601a      	str	r2, [r3, #0]
/Users/felipeneves/Documents/Projects/Embedded/uLipeRTOS/Debug/../src/main.c:99
	*--HighReadyTaskBlock->TaskStack = 0x00;
 80004c6:	f240 036c 	movw	r3, #108	; 0x6c
 80004ca:	f2c2 0300 	movt	r3, #8192	; 0x2000
 80004ce:	681b      	ldr	r3, [r3, #0]
 80004d0:	699a      	ldr	r2, [r3, #24]
 80004d2:	f1a2 0204 	sub.w	r2, r2, #4
 80004d6:	619a      	str	r2, [r3, #24]
 80004d8:	699b      	ldr	r3, [r3, #24]
 80004da:	f04f 0200 	mov.w	r2, #0
 80004de:	601a      	str	r2, [r3, #0]
/Users/felipeneves/Documents/Projects/Embedded/uLipeRTOS/Debug/../src/main.c:100
	*--HighReadyTaskBlock->TaskStack = 0x00;
 80004e0:	f240 036c 	movw	r3, #108	; 0x6c
 80004e4:	f2c2 0300 	movt	r3, #8192	; 0x2000
 80004e8:	681b      	ldr	r3, [r3, #0]
 80004ea:	699a      	ldr	r2, [r3, #24]
 80004ec:	f1a2 0204 	sub.w	r2, r2, #4
 80004f0:	619a      	str	r2, [r3, #24]
 80004f2:	699b      	ldr	r3, [r3, #24]
 80004f4:	f04f 0200 	mov.w	r2, #0
 80004f8:	601a      	str	r2, [r3, #0]
/Users/felipeneves/Documents/Projects/Embedded/uLipeRTOS/Debug/../src/main.c:112
	*--HighReadyTaskBlock->TaskStack = 0x00;
	*--HighReadyTaskBlock->TaskStack = 0x12345678;
*/

    //outro stack frame
	*--CurrentTaskBlock->TaskStack = 0x01000000; //status registers
 80004fa:	f240 0368 	movw	r3, #104	; 0x68
 80004fe:	f2c2 0300 	movt	r3, #8192	; 0x2000
 8000502:	681b      	ldr	r3, [r3, #0]
 8000504:	699a      	ldr	r2, [r3, #24]
 8000506:	f1a2 0204 	sub.w	r2, r2, #4
 800050a:	619a      	str	r2, [r3, #24]
 800050c:	699b      	ldr	r3, [r3, #24]
 800050e:	f04f 7280 	mov.w	r2, #16777216	; 0x1000000
 8000512:	601a      	str	r2, [r3, #0]
/Users/felipeneves/Documents/Projects/Embedded/uLipeRTOS/Debug/../src/main.c:113
	*--CurrentTaskBlock->TaskStack = (taskptr_t *)CurrentTaskBlock->TaskAction;//PC
 8000514:	f240 0368 	movw	r3, #104	; 0x68
 8000518:	f2c2 0300 	movt	r3, #8192	; 0x2000
 800051c:	681b      	ldr	r3, [r3, #0]
 800051e:	699a      	ldr	r2, [r3, #24]
 8000520:	f1a2 0204 	sub.w	r2, r2, #4
 8000524:	619a      	str	r2, [r3, #24]
 8000526:	699a      	ldr	r2, [r3, #24]
 8000528:	f240 0368 	movw	r3, #104	; 0x68
 800052c:	f2c2 0300 	movt	r3, #8192	; 0x2000
 8000530:	681b      	ldr	r3, [r3, #0]
 8000532:	69db      	ldr	r3, [r3, #28]
 8000534:	6013      	str	r3, [r2, #0]
/Users/felipeneves/Documents/Projects/Embedded/uLipeRTOS/Debug/../src/main.c:114
	*--CurrentTaskBlock->TaskStack = 0xFFFFFFFD;
 8000536:	f240 0368 	movw	r3, #104	; 0x68
 800053a:	f2c2 0300 	movt	r3, #8192	; 0x2000
 800053e:	681b      	ldr	r3, [r3, #0]
 8000540:	699a      	ldr	r2, [r3, #24]
 8000542:	f1a2 0204 	sub.w	r2, r2, #4
 8000546:	619a      	str	r2, [r3, #24]
 8000548:	699b      	ldr	r3, [r3, #24]
 800054a:	f06f 0202 	mvn.w	r2, #2
 800054e:	601a      	str	r2, [r3, #0]
/Users/felipeneves/Documents/Projects/Embedded/uLipeRTOS/Debug/../src/main.c:115
	*--CurrentTaskBlock->TaskStack = 0x00;
 8000550:	f240 0368 	movw	r3, #104	; 0x68
 8000554:	f2c2 0300 	movt	r3, #8192	; 0x2000
 8000558:	681b      	ldr	r3, [r3, #0]
 800055a:	699a      	ldr	r2, [r3, #24]
 800055c:	f1a2 0204 	sub.w	r2, r2, #4
 8000560:	619a      	str	r2, [r3, #24]
 8000562:	699b      	ldr	r3, [r3, #24]
 8000564:	f04f 0200 	mov.w	r2, #0
 8000568:	601a      	str	r2, [r3, #0]
/Users/felipeneves/Documents/Projects/Embedded/uLipeRTOS/Debug/../src/main.c:116
	*--CurrentTaskBlock->TaskStack = 0x00;
 800056a:	f240 0368 	movw	r3, #104	; 0x68
 800056e:	f2c2 0300 	movt	r3, #8192	; 0x2000
 8000572:	681b      	ldr	r3, [r3, #0]
 8000574:	699a      	ldr	r2, [r3, #24]
 8000576:	f1a2 0204 	sub.w	r2, r2, #4
 800057a:	619a      	str	r2, [r3, #24]
 800057c:	699b      	ldr	r3, [r3, #24]
 800057e:	f04f 0200 	mov.w	r2, #0
 8000582:	601a      	str	r2, [r3, #0]
/Users/felipeneves/Documents/Projects/Embedded/uLipeRTOS/Debug/../src/main.c:117
	*--CurrentTaskBlock->TaskStack = 0x00;
 8000584:	f240 0368 	movw	r3, #104	; 0x68
 8000588:	f2c2 0300 	movt	r3, #8192	; 0x2000
 800058c:	681b      	ldr	r3, [r3, #0]
 800058e:	699a      	ldr	r2, [r3, #24]
 8000590:	f1a2 0204 	sub.w	r2, r2, #4
 8000594:	619a      	str	r2, [r3, #24]
 8000596:	699b      	ldr	r3, [r3, #24]
 8000598:	f04f 0200 	mov.w	r2, #0
 800059c:	601a      	str	r2, [r3, #0]
/Users/felipeneves/Documents/Projects/Embedded/uLipeRTOS/Debug/../src/main.c:118
	*--CurrentTaskBlock->TaskStack = 0x00;
 800059e:	f240 0368 	movw	r3, #104	; 0x68
 80005a2:	f2c2 0300 	movt	r3, #8192	; 0x2000
 80005a6:	681b      	ldr	r3, [r3, #0]
 80005a8:	699a      	ldr	r2, [r3, #24]
 80005aa:	f1a2 0204 	sub.w	r2, r2, #4
 80005ae:	619a      	str	r2, [r3, #24]
 80005b0:	699b      	ldr	r3, [r3, #24]
 80005b2:	f04f 0200 	mov.w	r2, #0
 80005b6:	601a      	str	r2, [r3, #0]
/Users/felipeneves/Documents/Projects/Embedded/uLipeRTOS/Debug/../src/main.c:119
	*--CurrentTaskBlock->TaskStack = 0x00;
 80005b8:	f240 0368 	movw	r3, #104	; 0x68
 80005bc:	f2c2 0300 	movt	r3, #8192	; 0x2000
 80005c0:	681b      	ldr	r3, [r3, #0]
 80005c2:	699a      	ldr	r2, [r3, #24]
 80005c4:	f1a2 0204 	sub.w	r2, r2, #4
 80005c8:	619a      	str	r2, [r3, #24]
 80005ca:	699b      	ldr	r3, [r3, #24]
 80005cc:	f04f 0200 	mov.w	r2, #0
 80005d0:	601a      	str	r2, [r3, #0]
/Users/felipeneves/Documents/Projects/Embedded/uLipeRTOS/Debug/../src/main.c:129
	*--CurrentTaskBlock->TaskStack = 0x00;
	*--CurrentTaskBlock->TaskStack = 0x00;
	*--CurrentTaskBlock->TaskStack = 0x00;
	*--CurrentTaskBlock->TaskStack = 0x12345678;
*/
	Asm_LowLevelTickInit(16800); //vamos testar!
 80005d2:	f244 10a0 	movw	r0, #16800	; 0x41a0
 80005d6:	f000 fa4b 	bl	8000a70 <Asm_LowLevelTickInit>
/Users/felipeneves/Documents/Projects/Embedded/uLipeRTOS/Debug/../src/main.c:131

	while (1);
 80005da:	e7fe      	b.n	80005da <main+0x352>

080005dc <SysTick_Handler>:
SysTick_Handler():
/Users/felipeneves/Documents/Projects/Embedded/uLipeRTOS/Debug/../src/main.c:176
 * @param  None
 * @retval None
 */
void
SysTick_Handler(void)
{
 80005dc:	b580      	push	{r7, lr}
 80005de:	af00      	add	r7, sp, #0
/Users/felipeneves/Documents/Projects/Embedded/uLipeRTOS/Debug/../src/main.c:178
	//simple round robin scheduling
	TestTCB = HighReadyTaskBlock;
 80005e0:	f240 036c 	movw	r3, #108	; 0x6c
 80005e4:	f2c2 0300 	movt	r3, #8192	; 0x2000
 80005e8:	681a      	ldr	r2, [r3, #0]
 80005ea:	f240 0338 	movw	r3, #56	; 0x38
 80005ee:	f2c2 0300 	movt	r3, #8192	; 0x2000
 80005f2:	601a      	str	r2, [r3, #0]
/Users/felipeneves/Documents/Projects/Embedded/uLipeRTOS/Debug/../src/main.c:179
	HighReadyTaskBlock = CurrentTaskBlock;
 80005f4:	f240 0368 	movw	r3, #104	; 0x68
 80005f8:	f2c2 0300 	movt	r3, #8192	; 0x2000
 80005fc:	681a      	ldr	r2, [r3, #0]
 80005fe:	f240 036c 	movw	r3, #108	; 0x6c
 8000602:	f2c2 0300 	movt	r3, #8192	; 0x2000
 8000606:	601a      	str	r2, [r3, #0]
/Users/felipeneves/Documents/Projects/Embedded/uLipeRTOS/Debug/../src/main.c:180
	CurrentTaskBlock = TestTCB;
 8000608:	f240 0338 	movw	r3, #56	; 0x38
 800060c:	f2c2 0300 	movt	r3, #8192	; 0x2000
 8000610:	681a      	ldr	r2, [r3, #0]
 8000612:	f240 0368 	movw	r3, #104	; 0x68
 8000616:	f2c2 0300 	movt	r3, #8192	; 0x2000
 800061a:	601a      	str	r2, [r3, #0]
/Users/felipeneves/Documents/Projects/Embedded/uLipeRTOS/Debug/../src/main.c:182

	Asm_TaskLevelContextChange(); //vamos testar?
 800061c:	f000 fa46 	bl	8000aac <Asm_TaskLevelContextChange>
/Users/felipeneves/Documents/Projects/Embedded/uLipeRTOS/Debug/../src/main.c:183
}
 8000620:	bd80      	pop	{r7, pc}
 8000622:	bf00      	nop

08000624 <TaskTry>:
TaskTry():
/Users/felipeneves/Documents/Projects/Embedded/uLipeRTOS/Debug/../src/tasks.c:40
os_stack_t TaskTryStack8[64];
os_taskname_t Try8[8] = {"TaskTry8"};


taskptr_t TaskTry(void *TaskArgs)
{
 8000624:	b480      	push	{r7}
 8000626:	b083      	sub	sp, #12
 8000628:	af00      	add	r7, sp, #0
 800062a:	6078      	str	r0, [r7, #4]
/Users/felipeneves/Documents/Projects/Embedded/uLipeRTOS/Debug/../src/tasks.c:48
					counter2 = 0,
					counter3 = 0;

	while(1)
	{
		counter1 = 250;
 800062c:	f240 035c 	movw	r3, #92	; 0x5c
 8000630:	f2c2 0300 	movt	r3, #8192	; 0x2000
 8000634:	f04f 02fa 	mov.w	r2, #250	; 0xfa
 8000638:	601a      	str	r2, [r3, #0]
/Users/felipeneves/Documents/Projects/Embedded/uLipeRTOS/Debug/../src/tasks.c:49
		counter2 = 225;
 800063a:	f240 0360 	movw	r3, #96	; 0x60
 800063e:	f2c2 0300 	movt	r3, #8192	; 0x2000
 8000642:	f04f 02e1 	mov.w	r2, #225	; 0xe1
 8000646:	601a      	str	r2, [r3, #0]
/Users/felipeneves/Documents/Projects/Embedded/uLipeRTOS/Debug/../src/tasks.c:50
		counter3 = 350;
 8000648:	f240 0364 	movw	r3, #100	; 0x64
 800064c:	f2c2 0300 	movt	r3, #8192	; 0x2000
 8000650:	f44f 72af 	mov.w	r2, #350	; 0x15e
 8000654:	601a      	str	r2, [r3, #0]
/Users/felipeneves/Documents/Projects/Embedded/uLipeRTOS/Debug/../src/tasks.c:51
	}
 8000656:	e7e9      	b.n	800062c <TaskTry+0x8>

08000658 <TaskTry2>:
TaskTry2():
/Users/felipeneves/Documents/Projects/Embedded/uLipeRTOS/Debug/../src/tasks.c:56

}

taskptr_t TaskTry2(void *TaskArgs)
{
 8000658:	b480      	push	{r7}
 800065a:	b083      	sub	sp, #12
 800065c:	af00      	add	r7, sp, #0
 800065e:	6078      	str	r0, [r7, #4]
/Users/felipeneves/Documents/Projects/Embedded/uLipeRTOS/Debug/../src/tasks.c:63
					counter2 = 0,
					counter3 = 0;

	while(1)
	{
		counter1 = 100;
 8000660:	f240 0350 	movw	r3, #80	; 0x50
 8000664:	f2c2 0300 	movt	r3, #8192	; 0x2000
 8000668:	f04f 0264 	mov.w	r2, #100	; 0x64
 800066c:	601a      	str	r2, [r3, #0]
/Users/felipeneves/Documents/Projects/Embedded/uLipeRTOS/Debug/../src/tasks.c:64
		counter2 = 150;
 800066e:	f240 0354 	movw	r3, #84	; 0x54
 8000672:	f2c2 0300 	movt	r3, #8192	; 0x2000
 8000676:	f04f 0296 	mov.w	r2, #150	; 0x96
 800067a:	601a      	str	r2, [r3, #0]
/Users/felipeneves/Documents/Projects/Embedded/uLipeRTOS/Debug/../src/tasks.c:65
		counter3 = 175;
 800067c:	f240 0358 	movw	r3, #88	; 0x58
 8000680:	f2c2 0300 	movt	r3, #8192	; 0x2000
 8000684:	f04f 02af 	mov.w	r2, #175	; 0xaf
 8000688:	601a      	str	r2, [r3, #0]
/Users/felipeneves/Documents/Projects/Embedded/uLipeRTOS/Debug/../src/tasks.c:66
	}
 800068a:	e7e9      	b.n	8000660 <TaskTry2+0x8>

0800068c <TaskTry3>:
TaskTry3():
/Users/felipeneves/Documents/Projects/Embedded/uLipeRTOS/Debug/../src/tasks.c:71
}


taskptr_t TaskTry3(void *TaskArgs)
{
 800068c:	b480      	push	{r7}
 800068e:	b083      	sub	sp, #12
 8000690:	af00      	add	r7, sp, #0
 8000692:	6078      	str	r0, [r7, #4]
/Users/felipeneves/Documents/Projects/Embedded/uLipeRTOS/Debug/../src/tasks.c:75

	static uint32_t counter = 0;

	counter++;
 8000694:	f240 034c 	movw	r3, #76	; 0x4c
 8000698:	f2c2 0300 	movt	r3, #8192	; 0x2000
 800069c:	681b      	ldr	r3, [r3, #0]
 800069e:	f103 0201 	add.w	r2, r3, #1
 80006a2:	f240 034c 	movw	r3, #76	; 0x4c
 80006a6:	f2c2 0300 	movt	r3, #8192	; 0x2000
 80006aa:	601a      	str	r2, [r3, #0]
/Users/felipeneves/Documents/Projects/Embedded/uLipeRTOS/Debug/../src/tasks.c:76
}
 80006ac:	f107 070c 	add.w	r7, r7, #12
 80006b0:	46bd      	mov	sp, r7
 80006b2:	bc80      	pop	{r7}
 80006b4:	4770      	bx	lr
 80006b6:	bf00      	nop

080006b8 <TaskTry4>:
TaskTry4():
/Users/felipeneves/Documents/Projects/Embedded/uLipeRTOS/Debug/../src/tasks.c:79

taskptr_t TaskTry4(void *TaskArgs)
{
 80006b8:	b480      	push	{r7}
 80006ba:	b083      	sub	sp, #12
 80006bc:	af00      	add	r7, sp, #0
 80006be:	6078      	str	r0, [r7, #4]
/Users/felipeneves/Documents/Projects/Embedded/uLipeRTOS/Debug/../src/tasks.c:83

	static uint32_t counter = 0;

	counter++;
 80006c0:	f240 0348 	movw	r3, #72	; 0x48
 80006c4:	f2c2 0300 	movt	r3, #8192	; 0x2000
 80006c8:	681b      	ldr	r3, [r3, #0]
 80006ca:	f103 0201 	add.w	r2, r3, #1
 80006ce:	f240 0348 	movw	r3, #72	; 0x48
 80006d2:	f2c2 0300 	movt	r3, #8192	; 0x2000
 80006d6:	601a      	str	r2, [r3, #0]
/Users/felipeneves/Documents/Projects/Embedded/uLipeRTOS/Debug/../src/tasks.c:84
}
 80006d8:	f107 070c 	add.w	r7, r7, #12
 80006dc:	46bd      	mov	sp, r7
 80006de:	bc80      	pop	{r7}
 80006e0:	4770      	bx	lr
 80006e2:	bf00      	nop

080006e4 <TaskTry5>:
TaskTry5():
/Users/felipeneves/Documents/Projects/Embedded/uLipeRTOS/Debug/../src/tasks.c:88


taskptr_t TaskTry5(void *TaskArgs)
{
 80006e4:	b480      	push	{r7}
 80006e6:	b083      	sub	sp, #12
 80006e8:	af00      	add	r7, sp, #0
 80006ea:	6078      	str	r0, [r7, #4]
/Users/felipeneves/Documents/Projects/Embedded/uLipeRTOS/Debug/../src/tasks.c:92

	static uint32_t counter = 0;

	counter++;
 80006ec:	f240 0344 	movw	r3, #68	; 0x44
 80006f0:	f2c2 0300 	movt	r3, #8192	; 0x2000
 80006f4:	681b      	ldr	r3, [r3, #0]
 80006f6:	f103 0201 	add.w	r2, r3, #1
 80006fa:	f240 0344 	movw	r3, #68	; 0x44
 80006fe:	f2c2 0300 	movt	r3, #8192	; 0x2000
 8000702:	601a      	str	r2, [r3, #0]
/Users/felipeneves/Documents/Projects/Embedded/uLipeRTOS/Debug/../src/tasks.c:93
}
 8000704:	f107 070c 	add.w	r7, r7, #12
 8000708:	46bd      	mov	sp, r7
 800070a:	bc80      	pop	{r7}
 800070c:	4770      	bx	lr
 800070e:	bf00      	nop

08000710 <TaskTry6>:
TaskTry6():
/Users/felipeneves/Documents/Projects/Embedded/uLipeRTOS/Debug/../src/tasks.c:96

taskptr_t TaskTry6(void *TaskArgs)
{
 8000710:	b480      	push	{r7}
 8000712:	b083      	sub	sp, #12
 8000714:	af00      	add	r7, sp, #0
 8000716:	6078      	str	r0, [r7, #4]
/Users/felipeneves/Documents/Projects/Embedded/uLipeRTOS/Debug/../src/tasks.c:100

	static uint32_t counter = 0;

	counter++;
 8000718:	f240 0340 	movw	r3, #64	; 0x40
 800071c:	f2c2 0300 	movt	r3, #8192	; 0x2000
 8000720:	681b      	ldr	r3, [r3, #0]
 8000722:	f103 0201 	add.w	r2, r3, #1
 8000726:	f240 0340 	movw	r3, #64	; 0x40
 800072a:	f2c2 0300 	movt	r3, #8192	; 0x2000
 800072e:	601a      	str	r2, [r3, #0]
/Users/felipeneves/Documents/Projects/Embedded/uLipeRTOS/Debug/../src/tasks.c:101
}
 8000730:	f107 070c 	add.w	r7, r7, #12
 8000734:	46bd      	mov	sp, r7
 8000736:	bc80      	pop	{r7}
 8000738:	4770      	bx	lr
 800073a:	bf00      	nop

0800073c <TaskTry7>:
TaskTry7():
/Users/felipeneves/Documents/Projects/Embedded/uLipeRTOS/Debug/../src/tasks.c:105


taskptr_t TaskTry7(void *TaskArgs)
{
 800073c:	b480      	push	{r7}
 800073e:	b083      	sub	sp, #12
 8000740:	af00      	add	r7, sp, #0
 8000742:	6078      	str	r0, [r7, #4]
/Users/felipeneves/Documents/Projects/Embedded/uLipeRTOS/Debug/../src/tasks.c:109

	static uint32_t counter = 0;

	counter++;
 8000744:	f240 033c 	movw	r3, #60	; 0x3c
 8000748:	f2c2 0300 	movt	r3, #8192	; 0x2000
 800074c:	681b      	ldr	r3, [r3, #0]
 800074e:	f103 0201 	add.w	r2, r3, #1
 8000752:	f240 033c 	movw	r3, #60	; 0x3c
 8000756:	f2c2 0300 	movt	r3, #8192	; 0x2000
 800075a:	601a      	str	r2, [r3, #0]
/Users/felipeneves/Documents/Projects/Embedded/uLipeRTOS/Debug/../src/tasks.c:110
}
 800075c:	f107 070c 	add.w	r7, r7, #12
 8000760:	46bd      	mov	sp, r7
 8000762:	bc80      	pop	{r7}
 8000764:	4770      	bx	lr
 8000766:	bf00      	nop

08000768 <__libc_init_array>:
__libc_init_array():
/Users/felipeneves/Documents/Projects/Embedded/uLipeRTOS/Debug/../libs/CMSIS/src/startup_cm.c:179
(*__fini_array_end[])(void) __attribute__((weak));

// Iterate over all the preinit/init routines.
inline void
__libc_init_array(void)
{
 8000768:	b580      	push	{r7, lr}
 800076a:	b082      	sub	sp, #8
 800076c:	af00      	add	r7, sp, #0
/Users/felipeneves/Documents/Projects/Embedded/uLipeRTOS/Debug/../libs/CMSIS/src/startup_cm.c:183
  size_t count;
  size_t i;

  count = __preinit_array_end - __preinit_array_start;
 800076e:	f240 2288 	movw	r2, #648	; 0x288
 8000772:	f6c0 0200 	movt	r2, #2048	; 0x800
 8000776:	f240 2384 	movw	r3, #644	; 0x284
 800077a:	f6c0 0300 	movt	r3, #2048	; 0x800
 800077e:	1ad3      	subs	r3, r2, r3
 8000780:	ea4f 03a3 	mov.w	r3, r3, asr #2
 8000784:	603b      	str	r3, [r7, #0]
/Users/felipeneves/Documents/Projects/Embedded/uLipeRTOS/Debug/../libs/CMSIS/src/startup_cm.c:184
  for (i = 0; i < count; i++)
 8000786:	f04f 0300 	mov.w	r3, #0
 800078a:	607b      	str	r3, [r7, #4]
 800078c:	e00b      	b.n	80007a6 <__libc_init_array+0x3e>
/Users/felipeneves/Documents/Projects/Embedded/uLipeRTOS/Debug/../libs/CMSIS/src/startup_cm.c:185
    __preinit_array_start[i]();
 800078e:	f240 2384 	movw	r3, #644	; 0x284
 8000792:	f6c0 0300 	movt	r3, #2048	; 0x800
 8000796:	687a      	ldr	r2, [r7, #4]
 8000798:	f853 3022 	ldr.w	r3, [r3, r2, lsl #2]
 800079c:	4798      	blx	r3
/Users/felipeneves/Documents/Projects/Embedded/uLipeRTOS/Debug/../libs/CMSIS/src/startup_cm.c:184
{
  size_t count;
  size_t i;

  count = __preinit_array_end - __preinit_array_start;
  for (i = 0; i < count; i++)
 800079e:	687b      	ldr	r3, [r7, #4]
 80007a0:	f103 0301 	add.w	r3, r3, #1
 80007a4:	607b      	str	r3, [r7, #4]
 80007a6:	687a      	ldr	r2, [r7, #4]
 80007a8:	683b      	ldr	r3, [r7, #0]
 80007aa:	429a      	cmp	r2, r3
 80007ac:	d3ef      	bcc.n	800078e <__libc_init_array+0x26>
/Users/felipeneves/Documents/Projects/Embedded/uLipeRTOS/Debug/../libs/CMSIS/src/startup_cm.c:192
  // If you need to run the code in the .init section, please use
  // the startup files, since this requires the code in crti.o and crtn.o
  // to add the function prologue/epilogue.
  //_init();

  count = __init_array_end - __init_array_start;
 80007ae:	f240 2288 	movw	r2, #648	; 0x288
 80007b2:	f6c0 0200 	movt	r2, #2048	; 0x800
 80007b6:	f240 2388 	movw	r3, #648	; 0x288
 80007ba:	f6c0 0300 	movt	r3, #2048	; 0x800
 80007be:	1ad3      	subs	r3, r2, r3
 80007c0:	ea4f 03a3 	mov.w	r3, r3, asr #2
 80007c4:	603b      	str	r3, [r7, #0]
/Users/felipeneves/Documents/Projects/Embedded/uLipeRTOS/Debug/../libs/CMSIS/src/startup_cm.c:193
  for (i = 0; i < count; i++)
 80007c6:	f04f 0300 	mov.w	r3, #0
 80007ca:	607b      	str	r3, [r7, #4]
 80007cc:	e00b      	b.n	80007e6 <__libc_init_array+0x7e>
/Users/felipeneves/Documents/Projects/Embedded/uLipeRTOS/Debug/../libs/CMSIS/src/startup_cm.c:194
    __init_array_start[i]();
 80007ce:	f240 2388 	movw	r3, #648	; 0x288
 80007d2:	f6c0 0300 	movt	r3, #2048	; 0x800
 80007d6:	687a      	ldr	r2, [r7, #4]
 80007d8:	f853 3022 	ldr.w	r3, [r3, r2, lsl #2]
 80007dc:	4798      	blx	r3
/Users/felipeneves/Documents/Projects/Embedded/uLipeRTOS/Debug/../libs/CMSIS/src/startup_cm.c:193
  // the startup files, since this requires the code in crti.o and crtn.o
  // to add the function prologue/epilogue.
  //_init();

  count = __init_array_end - __init_array_start;
  for (i = 0; i < count; i++)
 80007de:	687b      	ldr	r3, [r7, #4]
 80007e0:	f103 0301 	add.w	r3, r3, #1
 80007e4:	607b      	str	r3, [r7, #4]
 80007e6:	687a      	ldr	r2, [r7, #4]
 80007e8:	683b      	ldr	r3, [r7, #0]
 80007ea:	429a      	cmp	r2, r3
 80007ec:	d3ef      	bcc.n	80007ce <__libc_init_array+0x66>
/Users/felipeneves/Documents/Projects/Embedded/uLipeRTOS/Debug/../libs/CMSIS/src/startup_cm.c:195
    __init_array_start[i]();
}
 80007ee:	f107 0708 	add.w	r7, r7, #8
 80007f2:	46bd      	mov	sp, r7
 80007f4:	bd80      	pop	{r7, pc}
 80007f6:	bf00      	nop

080007f8 <__libc_fini_array>:
__libc_fini_array():
/Users/felipeneves/Documents/Projects/Embedded/uLipeRTOS/Debug/../libs/CMSIS/src/startup_cm.c:200

// Run all the cleanup routines.
inline void
__libc_fini_array(void)
{
 80007f8:	b580      	push	{r7, lr}
 80007fa:	b082      	sub	sp, #8
 80007fc:	af00      	add	r7, sp, #0
/Users/felipeneves/Documents/Projects/Embedded/uLipeRTOS/Debug/../libs/CMSIS/src/startup_cm.c:204
  size_t count;
  size_t i;

  count = __fini_array_end - __fini_array_start;
 80007fe:	f240 2288 	movw	r2, #648	; 0x288
 8000802:	f6c0 0200 	movt	r2, #2048	; 0x800
 8000806:	f240 2388 	movw	r3, #648	; 0x288
 800080a:	f6c0 0300 	movt	r3, #2048	; 0x800
 800080e:	1ad3      	subs	r3, r2, r3
 8000810:	ea4f 03a3 	mov.w	r3, r3, asr #2
 8000814:	603b      	str	r3, [r7, #0]
/Users/felipeneves/Documents/Projects/Embedded/uLipeRTOS/Debug/../libs/CMSIS/src/startup_cm.c:205
  for (i = count; i > 0; i--)
 8000816:	683b      	ldr	r3, [r7, #0]
 8000818:	607b      	str	r3, [r7, #4]
 800081a:	e00d      	b.n	8000838 <__libc_fini_array+0x40>
/Users/felipeneves/Documents/Projects/Embedded/uLipeRTOS/Debug/../libs/CMSIS/src/startup_cm.c:206
    __fini_array_start[i - 1]();
 800081c:	687b      	ldr	r3, [r7, #4]
 800081e:	f103 32ff 	add.w	r2, r3, #4294967295	; 0xffffffff
 8000822:	f240 2388 	movw	r3, #648	; 0x288
 8000826:	f6c0 0300 	movt	r3, #2048	; 0x800
 800082a:	f853 3022 	ldr.w	r3, [r3, r2, lsl #2]
 800082e:	4798      	blx	r3
/Users/felipeneves/Documents/Projects/Embedded/uLipeRTOS/Debug/../libs/CMSIS/src/startup_cm.c:205
{
  size_t count;
  size_t i;

  count = __fini_array_end - __fini_array_start;
  for (i = count; i > 0; i--)
 8000830:	687b      	ldr	r3, [r7, #4]
 8000832:	f103 33ff 	add.w	r3, r3, #4294967295	; 0xffffffff
 8000836:	607b      	str	r3, [r7, #4]
 8000838:	687b      	ldr	r3, [r7, #4]
 800083a:	2b00      	cmp	r3, #0
 800083c:	d1ee      	bne.n	800081c <__libc_fini_array+0x24>
/Users/felipeneves/Documents/Projects/Embedded/uLipeRTOS/Debug/../libs/CMSIS/src/startup_cm.c:212

  // If you need to run the code in the .fini section, please use
  // the startup files, since this requires the code in crti.o and crtn.o
  // to add the function prologue/epilogue.
  //_fini();
}
 800083e:	f107 0708 	add.w	r7, r7, #8
 8000842:	46bd      	mov	sp, r7
 8000844:	bd80      	pop	{r7, pc}
 8000846:	bf00      	nop

08000848 <_exit>:
_exit():
/Users/felipeneves/Documents/Projects/Embedded/uLipeRTOS/Debug/../libs/CMSIS/src/startup_stm32f4xx.c:44
// You can redefine it in the application, if more functionality
// is required
void
__attribute__((weak))
_exit(int r)
{
 8000848:	b480      	push	{r7}
 800084a:	b083      	sub	sp, #12
 800084c:	af00      	add	r7, sp, #0
 800084e:	6078      	str	r0, [r7, #4]
/Users/felipeneves/Documents/Projects/Embedded/uLipeRTOS/Debug/../libs/CMSIS/src/startup_stm32f4xx.c:47
#if defined(DEBUG)
  while(1)
  ;
 8000850:	e7fe      	b.n	8000850 <_exit+0x8>
 8000852:	bf00      	nop

08000854 <SystemInit>:
SystemInit():
/Users/felipeneves/Documents/Projects/Embedded/uLipeRTOS/Debug/../libs/CMSIS/src/system_stm32f4xx.c:338
  *         SystemFrequency variable.
  * @param  None
  * @retval None
  */
void SystemInit(void)
{
 8000854:	b580      	push	{r7, lr}
 8000856:	af00      	add	r7, sp, #0
/Users/felipeneves/Documents/Projects/Embedded/uLipeRTOS/Debug/../libs/CMSIS/src/system_stm32f4xx.c:345
  #if (__FPU_PRESENT == 1) && (__FPU_USED == 1)
    SCB->CPACR |= ((3UL << 10*2)|(3UL << 11*2));  /* set CP10 and CP11 Full Access */
  #endif
  /* Reset the RCC clock configuration to the default reset state ------------*/
  /* Set HSION bit */
  RCC->CR |= (uint32_t)0x00000001;
 8000858:	f44f 5360 	mov.w	r3, #14336	; 0x3800
 800085c:	f2c4 0302 	movt	r3, #16386	; 0x4002
 8000860:	f44f 5260 	mov.w	r2, #14336	; 0x3800
 8000864:	f2c4 0202 	movt	r2, #16386	; 0x4002
 8000868:	6812      	ldr	r2, [r2, #0]
 800086a:	f042 0201 	orr.w	r2, r2, #1
 800086e:	601a      	str	r2, [r3, #0]
/Users/felipeneves/Documents/Projects/Embedded/uLipeRTOS/Debug/../libs/CMSIS/src/system_stm32f4xx.c:348

  /* Reset CFGR register */
  RCC->CFGR = 0x00000000;
 8000870:	f44f 5360 	mov.w	r3, #14336	; 0x3800
 8000874:	f2c4 0302 	movt	r3, #16386	; 0x4002
 8000878:	f04f 0200 	mov.w	r2, #0
 800087c:	609a      	str	r2, [r3, #8]
/Users/felipeneves/Documents/Projects/Embedded/uLipeRTOS/Debug/../libs/CMSIS/src/system_stm32f4xx.c:351

  /* Reset HSEON, CSSON and PLLON bits */
  RCC->CR &= (uint32_t)0xFEF6FFFF;
 800087e:	f44f 5360 	mov.w	r3, #14336	; 0x3800
 8000882:	f2c4 0302 	movt	r3, #16386	; 0x4002
 8000886:	f44f 5260 	mov.w	r2, #14336	; 0x3800
 800088a:	f2c4 0202 	movt	r2, #16386	; 0x4002
 800088e:	6812      	ldr	r2, [r2, #0]
 8000890:	f022 7284 	bic.w	r2, r2, #17301504	; 0x1080000
 8000894:	f422 3280 	bic.w	r2, r2, #65536	; 0x10000
 8000898:	601a      	str	r2, [r3, #0]
/Users/felipeneves/Documents/Projects/Embedded/uLipeRTOS/Debug/../libs/CMSIS/src/system_stm32f4xx.c:354

  /* Reset PLLCFGR register */
  RCC->PLLCFGR = 0x24003010;
 800089a:	f44f 5360 	mov.w	r3, #14336	; 0x3800
 800089e:	f2c4 0302 	movt	r3, #16386	; 0x4002
 80008a2:	f243 0210 	movw	r2, #12304	; 0x3010
 80008a6:	f2c2 4200 	movt	r2, #9216	; 0x2400
 80008aa:	605a      	str	r2, [r3, #4]
/Users/felipeneves/Documents/Projects/Embedded/uLipeRTOS/Debug/../libs/CMSIS/src/system_stm32f4xx.c:357

  /* Reset HSEBYP bit */
  RCC->CR &= (uint32_t)0xFFFBFFFF;
 80008ac:	f44f 5360 	mov.w	r3, #14336	; 0x3800
 80008b0:	f2c4 0302 	movt	r3, #16386	; 0x4002
 80008b4:	f44f 5260 	mov.w	r2, #14336	; 0x3800
 80008b8:	f2c4 0202 	movt	r2, #16386	; 0x4002
 80008bc:	6812      	ldr	r2, [r2, #0]
 80008be:	f422 2280 	bic.w	r2, r2, #262144	; 0x40000
 80008c2:	601a      	str	r2, [r3, #0]
/Users/felipeneves/Documents/Projects/Embedded/uLipeRTOS/Debug/../libs/CMSIS/src/system_stm32f4xx.c:360

  /* Disable all interrupts */
  RCC->CIR = 0x00000000;
 80008c4:	f44f 5360 	mov.w	r3, #14336	; 0x3800
 80008c8:	f2c4 0302 	movt	r3, #16386	; 0x4002
 80008cc:	f04f 0200 	mov.w	r2, #0
 80008d0:	60da      	str	r2, [r3, #12]
/Users/felipeneves/Documents/Projects/Embedded/uLipeRTOS/Debug/../libs/CMSIS/src/system_stm32f4xx.c:368
  SystemInit_ExtMemCtl(); 
#endif /* DATA_IN_ExtSRAM || DATA_IN_ExtSDRAM */
         
  /* Configure the System clock source, PLL Multiplier and Divider factors, 
     AHB/APBx prescalers and Flash settings ----------------------------------*/
  SetSysClock();
 80008d2:	f000 f809 	bl	80008e8 <SetSysClock>
/Users/felipeneves/Documents/Projects/Embedded/uLipeRTOS/Debug/../libs/CMSIS/src/system_stm32f4xx.c:374

  /* Configure the Vector Table location add offset address ------------------*/
#ifdef VECT_TAB_SRAM
  SCB->VTOR = SRAM_BASE | VECT_TAB_OFFSET; /* Vector Table Relocation in Internal SRAM */
#else
  SCB->VTOR = FLASH_BASE | VECT_TAB_OFFSET; /* Vector Table Relocation in Internal FLASH */
 80008d6:	f44f 436d 	mov.w	r3, #60672	; 0xed00
 80008da:	f2ce 0300 	movt	r3, #57344	; 0xe000
 80008de:	f04f 6200 	mov.w	r2, #134217728	; 0x8000000
 80008e2:	609a      	str	r2, [r3, #8]
/Users/felipeneves/Documents/Projects/Embedded/uLipeRTOS/Debug/../libs/CMSIS/src/system_stm32f4xx.c:376
#endif
}
 80008e4:	bd80      	pop	{r7, pc}
 80008e6:	bf00      	nop

080008e8 <SetSysClock>:
SetSysClock():
/Users/felipeneves/Documents/Projects/Embedded/uLipeRTOS/Debug/../libs/CMSIS/src/system_stm32f4xx.c:471
  *         is reset to the default reset state (done in SystemInit() function).   
  * @param  None
  * @retval None
  */
static void SetSysClock(void)
{
 80008e8:	b480      	push	{r7}
 80008ea:	b083      	sub	sp, #12
 80008ec:	af00      	add	r7, sp, #0
/Users/felipeneves/Documents/Projects/Embedded/uLipeRTOS/Debug/../libs/CMSIS/src/system_stm32f4xx.c:475
/******************************************************************************/
/*            PLL (clocked by HSE) used as System clock source                */
/******************************************************************************/
  __IO uint32_t StartUpCounter = 0, HSEStatus = 0;
 80008ee:	f04f 0300 	mov.w	r3, #0
 80008f2:	607b      	str	r3, [r7, #4]
 80008f4:	f04f 0300 	mov.w	r3, #0
 80008f8:	603b      	str	r3, [r7, #0]
/Users/felipeneves/Documents/Projects/Embedded/uLipeRTOS/Debug/../libs/CMSIS/src/system_stm32f4xx.c:478
  
  /* Enable HSE */
  RCC->CR |= ((uint32_t)RCC_CR_HSEON);
 80008fa:	f44f 5360 	mov.w	r3, #14336	; 0x3800
 80008fe:	f2c4 0302 	movt	r3, #16386	; 0x4002
 8000902:	f44f 5260 	mov.w	r2, #14336	; 0x3800
 8000906:	f2c4 0202 	movt	r2, #16386	; 0x4002
 800090a:	6812      	ldr	r2, [r2, #0]
 800090c:	f442 3280 	orr.w	r2, r2, #65536	; 0x10000
 8000910:	601a      	str	r2, [r3, #0]
/Users/felipeneves/Documents/Projects/Embedded/uLipeRTOS/Debug/../libs/CMSIS/src/system_stm32f4xx.c:483
 
  /* Wait till HSE is ready and if Time out is reached exit */
  do
  {
    HSEStatus = RCC->CR & RCC_CR_HSERDY;
 8000912:	f44f 5360 	mov.w	r3, #14336	; 0x3800
 8000916:	f2c4 0302 	movt	r3, #16386	; 0x4002
 800091a:	681b      	ldr	r3, [r3, #0]
 800091c:	f403 3300 	and.w	r3, r3, #131072	; 0x20000
 8000920:	603b      	str	r3, [r7, #0]
/Users/felipeneves/Documents/Projects/Embedded/uLipeRTOS/Debug/../libs/CMSIS/src/system_stm32f4xx.c:484
    StartUpCounter++;
 8000922:	687b      	ldr	r3, [r7, #4]
 8000924:	f103 0301 	add.w	r3, r3, #1
 8000928:	607b      	str	r3, [r7, #4]
/Users/felipeneves/Documents/Projects/Embedded/uLipeRTOS/Debug/../libs/CMSIS/src/system_stm32f4xx.c:485
  } while((HSEStatus == 0) && (StartUpCounter != HSE_STARTUP_TIMEOUT));
 800092a:	683b      	ldr	r3, [r7, #0]
 800092c:	2b00      	cmp	r3, #0
 800092e:	d103      	bne.n	8000938 <SetSysClock+0x50>
 8000930:	687b      	ldr	r3, [r7, #4]
 8000932:	f5b3 4fa0 	cmp.w	r3, #20480	; 0x5000
 8000936:	d1ec      	bne.n	8000912 <SetSysClock+0x2a>
/Users/felipeneves/Documents/Projects/Embedded/uLipeRTOS/Debug/../libs/CMSIS/src/system_stm32f4xx.c:487

  if ((RCC->CR & RCC_CR_HSERDY) != RESET)
 8000938:	f44f 5360 	mov.w	r3, #14336	; 0x3800
 800093c:	f2c4 0302 	movt	r3, #16386	; 0x4002
 8000940:	681b      	ldr	r3, [r3, #0]
 8000942:	f403 3300 	and.w	r3, r3, #131072	; 0x20000
 8000946:	2b00      	cmp	r3, #0
 8000948:	d003      	beq.n	8000952 <SetSysClock+0x6a>
/Users/felipeneves/Documents/Projects/Embedded/uLipeRTOS/Debug/../libs/CMSIS/src/system_stm32f4xx.c:489
  {
    HSEStatus = (uint32_t)0x01;
 800094a:	f04f 0301 	mov.w	r3, #1
 800094e:	603b      	str	r3, [r7, #0]
 8000950:	e002      	b.n	8000958 <SetSysClock+0x70>
/Users/felipeneves/Documents/Projects/Embedded/uLipeRTOS/Debug/../libs/CMSIS/src/system_stm32f4xx.c:493
  }
  else
  {
    HSEStatus = (uint32_t)0x00;
 8000952:	f04f 0300 	mov.w	r3, #0
 8000956:	603b      	str	r3, [r7, #0]
/Users/felipeneves/Documents/Projects/Embedded/uLipeRTOS/Debug/../libs/CMSIS/src/system_stm32f4xx.c:496
  }

  if (HSEStatus == (uint32_t)0x01)
 8000958:	683b      	ldr	r3, [r7, #0]
 800095a:	2b01      	cmp	r3, #1
 800095c:	f040 8082 	bne.w	8000a64 <SetSysClock+0x17c>
/Users/felipeneves/Documents/Projects/Embedded/uLipeRTOS/Debug/../libs/CMSIS/src/system_stm32f4xx.c:499
  {
    /* Select regulator voltage output Scale 1 mode */
    RCC->APB1ENR |= RCC_APB1ENR_PWREN;
 8000960:	f44f 5360 	mov.w	r3, #14336	; 0x3800
 8000964:	f2c4 0302 	movt	r3, #16386	; 0x4002
 8000968:	f44f 5260 	mov.w	r2, #14336	; 0x3800
 800096c:	f2c4 0202 	movt	r2, #16386	; 0x4002
 8000970:	6c12      	ldr	r2, [r2, #64]	; 0x40
 8000972:	f042 5280 	orr.w	r2, r2, #268435456	; 0x10000000
 8000976:	641a      	str	r2, [r3, #64]	; 0x40
/Users/felipeneves/Documents/Projects/Embedded/uLipeRTOS/Debug/../libs/CMSIS/src/system_stm32f4xx.c:500
    PWR->CR |= PWR_CR_VOS;
 8000978:	f44f 43e0 	mov.w	r3, #28672	; 0x7000
 800097c:	f2c4 0300 	movt	r3, #16384	; 0x4000
 8000980:	f44f 42e0 	mov.w	r2, #28672	; 0x7000
 8000984:	f2c4 0200 	movt	r2, #16384	; 0x4000
 8000988:	6812      	ldr	r2, [r2, #0]
 800098a:	f442 4240 	orr.w	r2, r2, #49152	; 0xc000
 800098e:	601a      	str	r2, [r3, #0]
/Users/felipeneves/Documents/Projects/Embedded/uLipeRTOS/Debug/../libs/CMSIS/src/system_stm32f4xx.c:503

    /* HCLK = SYSCLK / 1*/
    RCC->CFGR |= RCC_CFGR_HPRE_DIV1;
 8000990:	f44f 5360 	mov.w	r3, #14336	; 0x3800
 8000994:	f2c4 0302 	movt	r3, #16386	; 0x4002
 8000998:	f44f 5260 	mov.w	r2, #14336	; 0x3800
 800099c:	f2c4 0202 	movt	r2, #16386	; 0x4002
 80009a0:	6892      	ldr	r2, [r2, #8]
 80009a2:	609a      	str	r2, [r3, #8]
/Users/felipeneves/Documents/Projects/Embedded/uLipeRTOS/Debug/../libs/CMSIS/src/system_stm32f4xx.c:507

#if defined (STM32F40_41xxx) || defined (STM32F427_437xx) || defined (STM32F429_439xx)      
    /* PCLK2 = HCLK / 2*/
    RCC->CFGR |= RCC_CFGR_PPRE2_DIV2;
 80009a4:	f44f 5360 	mov.w	r3, #14336	; 0x3800
 80009a8:	f2c4 0302 	movt	r3, #16386	; 0x4002
 80009ac:	f44f 5260 	mov.w	r2, #14336	; 0x3800
 80009b0:	f2c4 0202 	movt	r2, #16386	; 0x4002
 80009b4:	6892      	ldr	r2, [r2, #8]
 80009b6:	f442 4200 	orr.w	r2, r2, #32768	; 0x8000
 80009ba:	609a      	str	r2, [r3, #8]
/Users/felipeneves/Documents/Projects/Embedded/uLipeRTOS/Debug/../libs/CMSIS/src/system_stm32f4xx.c:510
    
    /* PCLK1 = HCLK / 4*/
    RCC->CFGR |= RCC_CFGR_PPRE1_DIV4;
 80009bc:	f44f 5360 	mov.w	r3, #14336	; 0x3800
 80009c0:	f2c4 0302 	movt	r3, #16386	; 0x4002
 80009c4:	f44f 5260 	mov.w	r2, #14336	; 0x3800
 80009c8:	f2c4 0202 	movt	r2, #16386	; 0x4002
 80009cc:	6892      	ldr	r2, [r2, #8]
 80009ce:	f442 52a0 	orr.w	r2, r2, #5120	; 0x1400
 80009d2:	609a      	str	r2, [r3, #8]
/Users/felipeneves/Documents/Projects/Embedded/uLipeRTOS/Debug/../libs/CMSIS/src/system_stm32f4xx.c:522
    /* PCLK1 = HCLK / 4*/
    RCC->CFGR |= RCC_CFGR_PPRE1_DIV2;
#endif /* STM32F401xx */
   
    /* Configure the main PLL */
    RCC->PLLCFGR = PLL_M | (PLL_N << 6) | (((PLL_P >> 1) -1) << 16) |
 80009d4:	f44f 5360 	mov.w	r3, #14336	; 0x3800
 80009d8:	f2c4 0302 	movt	r3, #16386	; 0x4002
 80009dc:	f245 4219 	movw	r2, #21529	; 0x5419
 80009e0:	f2c0 7240 	movt	r2, #1856	; 0x740
 80009e4:	605a      	str	r2, [r3, #4]
/Users/felipeneves/Documents/Projects/Embedded/uLipeRTOS/Debug/../libs/CMSIS/src/system_stm32f4xx.c:526
                   (RCC_PLLCFGR_PLLSRC_HSE) | (PLL_Q << 24);

    /* Enable the main PLL */
    RCC->CR |= RCC_CR_PLLON;
 80009e6:	f44f 5360 	mov.w	r3, #14336	; 0x3800
 80009ea:	f2c4 0302 	movt	r3, #16386	; 0x4002
 80009ee:	f44f 5260 	mov.w	r2, #14336	; 0x3800
 80009f2:	f2c4 0202 	movt	r2, #16386	; 0x4002
 80009f6:	6812      	ldr	r2, [r2, #0]
 80009f8:	f042 7280 	orr.w	r2, r2, #16777216	; 0x1000000
 80009fc:	601a      	str	r2, [r3, #0]
/Users/felipeneves/Documents/Projects/Embedded/uLipeRTOS/Debug/../libs/CMSIS/src/system_stm32f4xx.c:529

    /* Wait till the main PLL is ready */
    while((RCC->CR & RCC_CR_PLLRDY) == 0)
 80009fe:	bf00      	nop
 8000a00:	f44f 5360 	mov.w	r3, #14336	; 0x3800
 8000a04:	f2c4 0302 	movt	r3, #16386	; 0x4002
 8000a08:	681b      	ldr	r3, [r3, #0]
 8000a0a:	f003 7300 	and.w	r3, r3, #33554432	; 0x2000000
 8000a0e:	2b00      	cmp	r3, #0
 8000a10:	d0f6      	beq.n	8000a00 <SetSysClock+0x118>
/Users/felipeneves/Documents/Projects/Embedded/uLipeRTOS/Debug/../libs/CMSIS/src/system_stm32f4xx.c:549
    FLASH->ACR = FLASH_ACR_PRFTEN | FLASH_ACR_ICEN |FLASH_ACR_DCEN |FLASH_ACR_LATENCY_5WS;
#endif /* STM32F427_437x || STM32F429_439xx  */

#if defined (STM32F40_41xxx)     
    /* Configure Flash prefetch, Instruction cache, Data cache and wait state */
    FLASH->ACR = FLASH_ACR_PRFTEN | FLASH_ACR_ICEN |FLASH_ACR_DCEN |FLASH_ACR_LATENCY_5WS;
 8000a12:	f44f 5370 	mov.w	r3, #15360	; 0x3c00
 8000a16:	f2c4 0302 	movt	r3, #16386	; 0x4002
 8000a1a:	f240 7205 	movw	r2, #1797	; 0x705
 8000a1e:	601a      	str	r2, [r3, #0]
/Users/felipeneves/Documents/Projects/Embedded/uLipeRTOS/Debug/../libs/CMSIS/src/system_stm32f4xx.c:558
    /* Configure Flash prefetch, Instruction cache, Data cache and wait state */
    FLASH->ACR = FLASH_ACR_PRFTEN | FLASH_ACR_ICEN |FLASH_ACR_DCEN |FLASH_ACR_LATENCY_2WS;
#endif /* STM32F401xx */

    /* Select the main PLL as system clock source */
    RCC->CFGR &= (uint32_t)((uint32_t)~(RCC_CFGR_SW));
 8000a20:	f44f 5360 	mov.w	r3, #14336	; 0x3800
 8000a24:	f2c4 0302 	movt	r3, #16386	; 0x4002
 8000a28:	f44f 5260 	mov.w	r2, #14336	; 0x3800
 8000a2c:	f2c4 0202 	movt	r2, #16386	; 0x4002
 8000a30:	6892      	ldr	r2, [r2, #8]
 8000a32:	f022 0203 	bic.w	r2, r2, #3
 8000a36:	609a      	str	r2, [r3, #8]
/Users/felipeneves/Documents/Projects/Embedded/uLipeRTOS/Debug/../libs/CMSIS/src/system_stm32f4xx.c:559
    RCC->CFGR |= RCC_CFGR_SW_PLL;
 8000a38:	f44f 5360 	mov.w	r3, #14336	; 0x3800
 8000a3c:	f2c4 0302 	movt	r3, #16386	; 0x4002
 8000a40:	f44f 5260 	mov.w	r2, #14336	; 0x3800
 8000a44:	f2c4 0202 	movt	r2, #16386	; 0x4002
 8000a48:	6892      	ldr	r2, [r2, #8]
 8000a4a:	f042 0202 	orr.w	r2, r2, #2
 8000a4e:	609a      	str	r2, [r3, #8]
/Users/felipeneves/Documents/Projects/Embedded/uLipeRTOS/Debug/../libs/CMSIS/src/system_stm32f4xx.c:562

    /* Wait till the main PLL is used as system clock source */
    while ((RCC->CFGR & (uint32_t)RCC_CFGR_SWS ) != RCC_CFGR_SWS_PLL);
 8000a50:	bf00      	nop
 8000a52:	f44f 5360 	mov.w	r3, #14336	; 0x3800
 8000a56:	f2c4 0302 	movt	r3, #16386	; 0x4002
 8000a5a:	689b      	ldr	r3, [r3, #8]
 8000a5c:	f003 030c 	and.w	r3, r3, #12
 8000a60:	2b08      	cmp	r3, #8
 8000a62:	d1f6      	bne.n	8000a52 <SetSysClock+0x16a>
/Users/felipeneves/Documents/Projects/Embedded/uLipeRTOS/Debug/../libs/CMSIS/src/system_stm32f4xx.c:571
  else
  { /* If HSE fails to start-up, the application will have wrong clock
         configuration. User can add here some code to deal with this error */
  }

}
 8000a64:	f107 070c 	add.w	r7, r7, #12
 8000a68:	46bd      	mov	sp, r7
 8000a6a:	bc80      	pop	{r7}
 8000a6c:	4770      	bx	lr
 8000a6e:	bf00      	nop

08000a70 <Asm_LowLevelTickInit>:
Asm_LowLevelTickInit():
/Users/felipeneves/Documents/Projects/Embedded/uLipeRTOS/Debug/../RTOS/AsmStuff.S:47
@************************************************************************
.thumb_func
Asm_LowLevelTickInit:


		CPSID 	I				@Disable interrupts
 8000a70:	b672      	cpsid	i
/Users/felipeneves/Documents/Projects/Embedded/uLipeRTOS/Debug/../RTOS/AsmStuff.S:49
								@
		LDR  R1, =0xE000ED14	@SCB->CCR
 8000a72:	4932      	ldr	r1, [pc, #200]	; (8000b3c <SECOND_CHANGE+0x26>)
/Users/felipeneves/Documents/Projects/Embedded/uLipeRTOS/Debug/../RTOS/AsmStuff.S:50
		LDR  R2, [R1]			@
 8000a74:	680a      	ldr	r2, [r1, #0]
/Users/felipeneves/Documents/Projects/Embedded/uLipeRTOS/Debug/../RTOS/AsmStuff.S:51
		ORR  R2,R2,#0x200		@Enable double word aling
 8000a76:	f442 7200 	orr.w	r2, r2, #512	; 0x200
/Users/felipeneves/Documents/Projects/Embedded/uLipeRTOS/Debug/../RTOS/AsmStuff.S:52
		STR	 R2,[R1]			@
 8000a7a:	600a      	str	r2, [r1, #0]
/Users/felipeneves/Documents/Projects/Embedded/uLipeRTOS/Debug/../RTOS/AsmStuff.S:54
								@
		LDR  R1, =0xE000E010    @Load the systick control register contents
 8000a7c:	4930      	ldr	r1, [pc, #192]	; (8000b40 <SECOND_CHANGE+0x2a>)
/Users/felipeneves/Documents/Projects/Embedded/uLipeRTOS/Debug/../RTOS/AsmStuff.S:55
		MOVS R2, #0x00000000	@
 8000a7e:	2200      	movs	r2, #0
/Users/felipeneves/Documents/Projects/Embedded/uLipeRTOS/Debug/../RTOS/AsmStuff.S:56
		STR	 R2, [R1], #0x04	@
 8000a80:	f841 2b04 	str.w	r2, [r1], #4
/Users/felipeneves/Documents/Projects/Embedded/uLipeRTOS/Debug/../RTOS/AsmStuff.S:57
		STR  R0, [R1]			@Write the new value for load count
 8000a84:	6008      	str	r0, [r1, #0]
/Users/felipeneves/Documents/Projects/Embedded/uLipeRTOS/Debug/../RTOS/AsmStuff.S:58
		SUBS R1, #0x04			@Points again to systick control gerister
 8000a86:	3904      	subs	r1, #4
/Users/felipeneves/Documents/Projects/Embedded/uLipeRTOS/Debug/../RTOS/AsmStuff.S:61
								@
								@
		MOVS R2, #0x00000003    @Enable systick timer and its interrupt
 8000a88:	2203      	movs	r2, #3
/Users/felipeneves/Documents/Projects/Embedded/uLipeRTOS/Debug/../RTOS/AsmStuff.S:62
		STR  R2, [R1]		 	@Write back on the systick register, and points to
 8000a8a:	600a      	str	r2, [r1, #0]
/Users/felipeneves/Documents/Projects/Embedded/uLipeRTOS/Debug/../RTOS/AsmStuff.S:65
							    @Load register
								@
		LDR   R1, =0xE000ED22  	@PENDSV Priority
 8000a8c:	492d      	ldr	r1, [pc, #180]	; (8000b44 <SECOND_CHANGE+0x2e>)
/Users/felipeneves/Documents/Projects/Embedded/uLipeRTOS/Debug/../RTOS/AsmStuff.S:66
		MOVS  R0, #0xFF			@
 8000a8e:	20ff      	movs	r0, #255	; 0xff
/Users/felipeneves/Documents/Projects/Embedded/uLipeRTOS/Debug/../RTOS/AsmStuff.S:67
		STRB  R0,[R1]			@set pend sv priority
 8000a90:	7008      	strb	r0, [r1, #0]
/Users/felipeneves/Documents/Projects/Embedded/uLipeRTOS/Debug/../RTOS/AsmStuff.S:69
								@
		CPSIE  I				@Enable global interrupts
 8000a92:	b662      	cpsie	i
/Users/felipeneves/Documents/Projects/Embedded/uLipeRTOS/Debug/../RTOS/AsmStuff.S:70
		BX	LR					@Return from sub
 8000a94:	4770      	bx	lr

08000a96 <Asm_CriticalIn>:
Asm_CriticalIn():
/Users/felipeneves/Documents/Projects/Embedded/uLipeRTOS/Debug/../RTOS/AsmStuff.S:85
@
@
@************************************************************************
.thumb_func
Asm_CriticalIn:
		CPSID	I					@disables all interrupts
 8000a96:	b672      	cpsid	i
/Users/felipeneves/Documents/Projects/Embedded/uLipeRTOS/Debug/../RTOS/AsmStuff.S:86
		BX		LR					@Return from sub
 8000a98:	4770      	bx	lr

08000a9a <Asm_CriticalOut>:
Asm_CriticalOut():
/Users/felipeneves/Documents/Projects/Embedded/uLipeRTOS/Debug/../RTOS/AsmStuff.S:102
@
@************************************************************************
.thumb_func
Asm_CriticalOut:

		CPSIE	I					@enables all interrupts
 8000a9a:	b662      	cpsie	i
/Users/felipeneves/Documents/Projects/Embedded/uLipeRTOS/Debug/../RTOS/AsmStuff.S:103
		BX		LR					@Return from sub
 8000a9c:	4770      	bx	lr

08000a9e <Asm_IntLevelContextChange>:
Asm_IntLevelContextChange():
/Users/felipeneves/Documents/Projects/Embedded/uLipeRTOS/Debug/../RTOS/AsmStuff.S:120
@
@************************************************************************
.thumb_func
Asm_IntLevelContextChange:

		CPSID 	I					@Disables interrrupts
 8000a9e:	b672      	cpsid	i
/Users/felipeneves/Documents/Projects/Embedded/uLipeRTOS/Debug/../RTOS/AsmStuff.S:121
		LDR  	R0, =0xE000ED04   	@SCB->ICSR register
 8000aa0:	4829      	ldr	r0, [pc, #164]	; (8000b48 <SECOND_CHANGE+0x32>)
/Users/felipeneves/Documents/Projects/Embedded/uLipeRTOS/Debug/../RTOS/AsmStuff.S:122
		MOVS	R1,#0x10000000	  	@Requests a PENDSV
 8000aa2:	f05f 5180 	movs.w	r1, #268435456	; 0x10000000
/Users/felipeneves/Documents/Projects/Embedded/uLipeRTOS/Debug/../RTOS/AsmStuff.S:125
									@exception
									@
		STR		R1,[R0]				@
 8000aa6:	6001      	str	r1, [r0, #0]
/Users/felipeneves/Documents/Projects/Embedded/uLipeRTOS/Debug/../RTOS/AsmStuff.S:126
		CPSIE	I					@Enable interrupts
 8000aa8:	b662      	cpsie	i
/Users/felipeneves/Documents/Projects/Embedded/uLipeRTOS/Debug/../RTOS/AsmStuff.S:128
									@
		BX LR 					  	@Return from sub
 8000aaa:	4770      	bx	lr

08000aac <Asm_TaskLevelContextChange>:
Asm_TaskLevelContextChange():
/Users/felipeneves/Documents/Projects/Embedded/uLipeRTOS/Debug/../RTOS/AsmStuff.S:145
@
@************************************************************************
.thumb_func
Asm_TaskLevelContextChange:

		CPSID 	I					@Disables interrrupts
 8000aac:	b672      	cpsid	i
/Users/felipeneves/Documents/Projects/Embedded/uLipeRTOS/Debug/../RTOS/AsmStuff.S:146
		LDR  	R0, =0xE000ED04   	@SCB->ICSR register
 8000aae:	4826      	ldr	r0, [pc, #152]	; (8000b48 <SECOND_CHANGE+0x32>)
/Users/felipeneves/Documents/Projects/Embedded/uLipeRTOS/Debug/../RTOS/AsmStuff.S:147
		MOVS	R1,#0x10000000	  	@Requests a PENDSV
 8000ab0:	f05f 5180 	movs.w	r1, #268435456	; 0x10000000
/Users/felipeneves/Documents/Projects/Embedded/uLipeRTOS/Debug/../RTOS/AsmStuff.S:150
									@exception
									@
		STR		R1,[R0]				@
 8000ab4:	6001      	str	r1, [r0, #0]
/Users/felipeneves/Documents/Projects/Embedded/uLipeRTOS/Debug/../RTOS/AsmStuff.S:151
		CPSIE	I					@Enable interrupts
 8000ab6:	b662      	cpsie	i
/Users/felipeneves/Documents/Projects/Embedded/uLipeRTOS/Debug/../RTOS/AsmStuff.S:154
									@
									@
		BX 		LR 					@Return from sub
 8000ab8:	4770      	bx	lr

08000aba <PendSV_Handler>:
PendSV_Handler():
/Users/felipeneves/Documents/Projects/Embedded/uLipeRTOS/Debug/../RTOS/AsmStuff.S:170
@
@
@************************************************************************
.thumb_func
PendSV_Handler:
		TST		LR,#4					@check the origin of interrupt
 8000aba:	f01e 0f04 	tst.w	lr, #4
/Users/felipeneves/Documents/Projects/Embedded/uLipeRTOS/Debug/../RTOS/AsmStuff.S:171
		IT		EQ						@if, it from a MSP usage
 8000abe:	bf08      	it	eq
/Users/felipeneves/Documents/Projects/Embedded/uLipeRTOS/Debug/../RTOS/AsmStuff.S:172
		BEQ		FIRST_CHANGE			@
 8000ac0:	f000 b819 	beq.w	8000af6 <FIRST_CHANGE>
/Users/felipeneves/Documents/Projects/Embedded/uLipeRTOS/Debug/../RTOS/AsmStuff.S:174
										@
		LDR		R0, =HighReadyTaskBlock @if not,
 8000ac4:	4821      	ldr	r0, [pc, #132]	; (8000b4c <SECOND_CHANGE+0x36>)
/Users/felipeneves/Documents/Projects/Embedded/uLipeRTOS/Debug/../RTOS/AsmStuff.S:175
		LDR		R0,[R0]					@
 8000ac6:	6800      	ldr	r0, [r0, #0]
/Users/felipeneves/Documents/Projects/Embedded/uLipeRTOS/Debug/../RTOS/AsmStuff.S:176
		LDR		R1,[R0]					@Check the current taskFLag
 8000ac8:	6801      	ldr	r1, [r0, #0]
/Users/felipeneves/Documents/Projects/Embedded/uLipeRTOS/Debug/../RTOS/AsmStuff.S:177
		TST		R1,#1					@Check if first time flag is set
 8000aca:	f011 0f01 	tst.w	r1, #1
/Users/felipeneves/Documents/Projects/Embedded/uLipeRTOS/Debug/../RTOS/AsmStuff.S:178
		IT		NE						@
 8000ace:	bf18      	it	ne
/Users/felipeneves/Documents/Projects/Embedded/uLipeRTOS/Debug/../RTOS/AsmStuff.S:179
		BNE 	SECOND_CHANGE			@Jump for first context switch
 8000ad0:	f000 b821 	bne.w	8000b16 <SECOND_CHANGE>
/Users/felipeneves/Documents/Projects/Embedded/uLipeRTOS/Debug/../RTOS/AsmStuff.S:182
										@
										@if, not, runs context switch normally
		LDR 	R0, =CurrentTaskBlock	@Get the current TCB
 8000ad4:	481e      	ldr	r0, [pc, #120]	; (8000b50 <SECOND_CHANGE+0x3a>)
/Users/felipeneves/Documents/Projects/Embedded/uLipeRTOS/Debug/../RTOS/AsmStuff.S:183
		LDR		R0,[R0]					@
 8000ad6:	6800      	ldr	r0, [r0, #0]
/Users/felipeneves/Documents/Projects/Embedded/uLipeRTOS/Debug/../RTOS/AsmStuff.S:184
		MRS		R1, PSP					@Get the current SP
 8000ad8:	f3ef 8109 	mrs	r1, PSP
/Users/felipeneves/Documents/Projects/Embedded/uLipeRTOS/Debug/../RTOS/AsmStuff.S:185
		STMDB	R1!,{R4 - R11}			@save R4 - R11 on the current stack
 8000adc:	e921 0ff0 	stmdb	r1!, {r4, r5, r6, r7, r8, r9, sl, fp}
/Users/felipeneves/Documents/Projects/Embedded/uLipeRTOS/Debug/../RTOS/AsmStuff.S:187
										@
		STR		R1,[R0,#0x00000018] 	@Save the current stack pointer
 8000ae0:	6181      	str	r1, [r0, #24]
/Users/felipeneves/Documents/Projects/Embedded/uLipeRTOS/Debug/../RTOS/AsmStuff.S:189
										@
		LDR		R0,=HighReadyTaskBlock  @Get the first task from de queue
 8000ae2:	481a      	ldr	r0, [pc, #104]	; (8000b4c <SECOND_CHANGE+0x36>)
/Users/felipeneves/Documents/Projects/Embedded/uLipeRTOS/Debug/../RTOS/AsmStuff.S:190
		LDR		R0,[R0]					@Get the new stack pointer
 8000ae4:	6800      	ldr	r0, [r0, #0]
/Users/felipeneves/Documents/Projects/Embedded/uLipeRTOS/Debug/../RTOS/AsmStuff.S:191
		LDR		R1, [R0,#0x00000018]	@
 8000ae6:	6981      	ldr	r1, [r0, #24]
/Users/felipeneves/Documents/Projects/Embedded/uLipeRTOS/Debug/../RTOS/AsmStuff.S:193
									    @
		LDMIA	R1!,{R4 - R11}			@Reload R4 -- R11
 8000ae8:	e8b1 0ff0 	ldmia.w	r1!, {r4, r5, r6, r7, r8, r9, sl, fp}
/Users/felipeneves/Documents/Projects/Embedded/uLipeRTOS/Debug/../RTOS/AsmStuff.S:194
		MSR		PSP , R1				@write the new stackpointer
 8000aec:	f381 8809 	msr	PSP, r1

08000af0 <NO_SAVE>:
NO_SAVE():
/Users/felipeneves/Documents/Projects/Embedded/uLipeRTOS/Debug/../RTOS/AsmStuff.S:196
NO_SAVE:								@
		ORR     LR,LR,#0x00000004		@ensures that return in PSP
 8000af0:	f04e 0e04 	orr.w	lr, lr, #4
/Users/felipeneves/Documents/Projects/Embedded/uLipeRTOS/Debug/../RTOS/AsmStuff.S:197
		BX		LR						@Return from sub
 8000af4:	4770      	bx	lr

08000af6 <FIRST_CHANGE>:
FIRST_CHANGE():
/Users/felipeneves/Documents/Projects/Embedded/uLipeRTOS/Debug/../RTOS/AsmStuff.S:200
										@
FIRST_CHANGE:							@
		MOVS    R4, #0x02				@if the first run
 8000af6:	2402      	movs	r4, #2
/Users/felipeneves/Documents/Projects/Embedded/uLipeRTOS/Debug/../RTOS/AsmStuff.S:201
		MSR	    CONTROL, R4				@uses PSP always
 8000af8:	f384 8814 	msr	CONTROL, r4
/Users/felipeneves/Documents/Projects/Embedded/uLipeRTOS/Debug/../RTOS/AsmStuff.S:202
		ISB								@recommended after write control
 8000afc:	f3bf 8f6f 	isb	sy
/Users/felipeneves/Documents/Projects/Embedded/uLipeRTOS/Debug/../RTOS/AsmStuff.S:203
		LDR		R0,=HighReadyTaskBlock  @Get the newTCB
 8000b00:	4812      	ldr	r0, [pc, #72]	; (8000b4c <SECOND_CHANGE+0x36>)
/Users/felipeneves/Documents/Projects/Embedded/uLipeRTOS/Debug/../RTOS/AsmStuff.S:204
		LDR		R0,[R0]					@Get the new stack pointer
 8000b02:	6800      	ldr	r0, [r0, #0]
/Users/felipeneves/Documents/Projects/Embedded/uLipeRTOS/Debug/../RTOS/AsmStuff.S:205
		LDR		R1,[R0]					@Get task flags
 8000b04:	6801      	ldr	r1, [r0, #0]
/Users/felipeneves/Documents/Projects/Embedded/uLipeRTOS/Debug/../RTOS/AsmStuff.S:206
		BIC		R1,R1,#1				@clear first time flag
 8000b06:	f021 0101 	bic.w	r1, r1, #1
/Users/felipeneves/Documents/Projects/Embedded/uLipeRTOS/Debug/../RTOS/AsmStuff.S:207
		STR		R1,[R0]					@
 8000b0a:	6001      	str	r1, [r0, #0]
/Users/felipeneves/Documents/Projects/Embedded/uLipeRTOS/Debug/../RTOS/AsmStuff.S:208
		LDR		R1, [R0,#0x00000018]	@
 8000b0c:	6981      	ldr	r1, [r0, #24]
/Users/felipeneves/Documents/Projects/Embedded/uLipeRTOS/Debug/../RTOS/AsmStuff.S:209
		MSR     PSP,R1					@Load the first stack pointer
 8000b0e:	f381 8809 	msr	PSP, r1
/Users/felipeneves/Documents/Projects/Embedded/uLipeRTOS/Debug/../RTOS/AsmStuff.S:210
		B		NO_SAVE					@
 8000b12:	f7ff bfed 	b.w	8000af0 <NO_SAVE>

08000b16 <SECOND_CHANGE>:
SECOND_CHANGE():
/Users/felipeneves/Documents/Projects/Embedded/uLipeRTOS/Debug/../RTOS/AsmStuff.S:213

SECOND_CHANGE:
		LDR 	R0, =CurrentTaskBlock	@Get the current TCB
 8000b16:	480e      	ldr	r0, [pc, #56]	; (8000b50 <SECOND_CHANGE+0x3a>)
/Users/felipeneves/Documents/Projects/Embedded/uLipeRTOS/Debug/../RTOS/AsmStuff.S:214
		LDR		R0,[R0]					@
 8000b18:	6800      	ldr	r0, [r0, #0]
/Users/felipeneves/Documents/Projects/Embedded/uLipeRTOS/Debug/../RTOS/AsmStuff.S:215
		MRS		R1, PSP					@Get the current SP
 8000b1a:	f3ef 8109 	mrs	r1, PSP
/Users/felipeneves/Documents/Projects/Embedded/uLipeRTOS/Debug/../RTOS/AsmStuff.S:216
		STMDB	R1!,{R4 - R11}			@save R4 - R11 on the current stack
 8000b1e:	e921 0ff0 	stmdb	r1!, {r4, r5, r6, r7, r8, r9, sl, fp}
/Users/felipeneves/Documents/Projects/Embedded/uLipeRTOS/Debug/../RTOS/AsmStuff.S:217
		STR		R1,[R0,#0x00000018] 	@Save the current stack pointer
 8000b22:	6181      	str	r1, [r0, #24]
/Users/felipeneves/Documents/Projects/Embedded/uLipeRTOS/Debug/../RTOS/AsmStuff.S:219
										@
		LDR		R0,=HighReadyTaskBlock  @Get the newTCB
 8000b24:	4809      	ldr	r0, [pc, #36]	; (8000b4c <SECOND_CHANGE+0x36>)
/Users/felipeneves/Documents/Projects/Embedded/uLipeRTOS/Debug/../RTOS/AsmStuff.S:220
		LDR		R0,[R0]					@Get the new stack pointer
 8000b26:	6800      	ldr	r0, [r0, #0]
/Users/felipeneves/Documents/Projects/Embedded/uLipeRTOS/Debug/../RTOS/AsmStuff.S:221
		LDR		R1,[R0]					@Get task flags
 8000b28:	6801      	ldr	r1, [r0, #0]
/Users/felipeneves/Documents/Projects/Embedded/uLipeRTOS/Debug/../RTOS/AsmStuff.S:222
		BIC		R1,R1,#1				@clear first time flag
 8000b2a:	f021 0101 	bic.w	r1, r1, #1
/Users/felipeneves/Documents/Projects/Embedded/uLipeRTOS/Debug/../RTOS/AsmStuff.S:223
		STR		R1,[R0]					@
 8000b2e:	6001      	str	r1, [r0, #0]
/Users/felipeneves/Documents/Projects/Embedded/uLipeRTOS/Debug/../RTOS/AsmStuff.S:224
		LDR		R1, [R0,#0x00000018]	@
 8000b30:	6981      	ldr	r1, [r0, #24]
/Users/felipeneves/Documents/Projects/Embedded/uLipeRTOS/Debug/../RTOS/AsmStuff.S:225
		MSR     PSP,R1					@Load the first stack pointer
 8000b32:	f381 8809 	msr	PSP, r1
/Users/felipeneves/Documents/Projects/Embedded/uLipeRTOS/Debug/../RTOS/AsmStuff.S:226
		B		NO_SAVE					@
 8000b36:	f7ff bfdb 	b.w	8000af0 <NO_SAVE>
 8000b3a:	0000      	.short	0x0000
/Users/felipeneves/Documents/Projects/Embedded/uLipeRTOS/Debug/../RTOS/AsmStuff.S:49
Asm_LowLevelTickInit:


		CPSID 	I				@Disable interrupts
								@
		LDR  R1, =0xE000ED14	@SCB->CCR
 8000b3c:	e000ed14 	.word	0xe000ed14
/Users/felipeneves/Documents/Projects/Embedded/uLipeRTOS/Debug/../RTOS/AsmStuff.S:54
		LDR  R2, [R1]			@
		ORR  R2,R2,#0x200		@Enable double word aling
		STR	 R2,[R1]			@
								@
		LDR  R1, =0xE000E010    @Load the systick control register contents
 8000b40:	e000e010 	.word	0xe000e010
/Users/felipeneves/Documents/Projects/Embedded/uLipeRTOS/Debug/../RTOS/AsmStuff.S:65
								@
		MOVS R2, #0x00000003    @Enable systick timer and its interrupt
		STR  R2, [R1]		 	@Write back on the systick register, and points to
							    @Load register
								@
		LDR   R1, =0xE000ED22  	@PENDSV Priority
 8000b44:	e000ed22 	.word	0xe000ed22
/Users/felipeneves/Documents/Projects/Embedded/uLipeRTOS/Debug/../RTOS/AsmStuff.S:121
@************************************************************************
.thumb_func
Asm_IntLevelContextChange:

		CPSID 	I					@Disables interrrupts
		LDR  	R0, =0xE000ED04   	@SCB->ICSR register
 8000b48:	e000ed04 	.word	0xe000ed04
/Users/felipeneves/Documents/Projects/Embedded/uLipeRTOS/Debug/../RTOS/AsmStuff.S:174
PendSV_Handler:
		TST		LR,#4					@check the origin of interrupt
		IT		EQ						@if, it from a MSP usage
		BEQ		FIRST_CHANGE			@
										@
		LDR		R0, =HighReadyTaskBlock @if not,
 8000b4c:	2000006c 	.word	0x2000006c
/Users/felipeneves/Documents/Projects/Embedded/uLipeRTOS/Debug/../RTOS/AsmStuff.S:182
		TST		R1,#1					@Check if first time flag is set
		IT		NE						@
		BNE 	SECOND_CHANGE			@Jump for first context switch
										@
										@if, not, runs context switch normally
		LDR 	R0, =CurrentTaskBlock	@Get the current TCB
 8000b50:	20000068 	.word	0x20000068

08000b54 <Task_InitBlocks>:
Task_InitBlocks():
/Users/felipeneves/Documents/Projects/Embedded/uLipeRTOS/Debug/../RTOS/uLipe_Task.c:99
 	 return:	TODO


 ************************************************************************/
void Task_InitBlocks(void)
{
 8000b54:	b580      	push	{r7, lr}
 8000b56:	af00      	add	r7, sp, #0
/Users/felipeneves/Documents/Projects/Embedded/uLipeRTOS/Debug/../RTOS/uLipe_Task.c:101
	//fill with zeros all TCBS!
	memset(&TaskBlockList, NULL, sizeof(TaskBlockList));
 8000b58:	f640 1074 	movw	r0, #2420	; 0x974
 8000b5c:	f2c2 0000 	movt	r0, #8192	; 0x2000
 8000b60:	f04f 0100 	mov.w	r1, #0
 8000b64:	f44f 72a0 	mov.w	r2, #320	; 0x140
 8000b68:	f000 f974 	bl	8000e54 <memset>
/Users/felipeneves/Documents/Projects/Embedded/uLipeRTOS/Debug/../RTOS/uLipe_Task.c:102
}
 8000b6c:	bd80      	pop	{r7, pc}
 8000b6e:	bf00      	nop

08000b70 <Task_Create>:
Task_Create():
/Users/felipeneves/Documents/Projects/Embedded/uLipeRTOS/Debug/../RTOS/uLipe_Task.c:120
 ************************************************************************/
os_error_t 	Task_Create
			(taskptr_t (*TaskAction), os_stack_t *TaskStack,
			uint8_t TaskPriority, os_taskname_t *TaskName,
			uint8_t NameSize,os_stack_t StackSize)
{
 8000b70:	b480      	push	{r7}
 8000b72:	b089      	sub	sp, #36	; 0x24
 8000b74:	af00      	add	r7, sp, #0
 8000b76:	60f8      	str	r0, [r7, #12]
 8000b78:	60b9      	str	r1, [r7, #8]
 8000b7a:	603b      	str	r3, [r7, #0]
 8000b7c:	4613      	mov	r3, r2
 8000b7e:	71fb      	strb	r3, [r7, #7]
/Users/felipeneves/Documents/Projects/Embedded/uLipeRTOS/Debug/../RTOS/uLipe_Task.c:121
	taskTCB_t *TaskList 		= &TaskBlockList,
 8000b80:	f640 1374 	movw	r3, #2420	; 0x974
 8000b84:	f2c2 0300 	movt	r3, #8192	; 0x2000
 8000b88:	61fb      	str	r3, [r7, #28]
/Users/felipeneves/Documents/Projects/Embedded/uLipeRTOS/Debug/../RTOS/uLipe_Task.c:122
			  *TaskToBeLinked	= &TaskBlockList;
 8000b8a:	f640 1374 	movw	r3, #2420	; 0x974
 8000b8e:	f2c2 0300 	movt	r3, #8192	; 0x2000
 8000b92:	617b      	str	r3, [r7, #20]
/Users/felipeneves/Documents/Projects/Embedded/uLipeRTOS/Debug/../RTOS/uLipe_Task.c:124

	uint8_t    LoopCntr = 0;
 8000b94:	f04f 0300 	mov.w	r3, #0
 8000b98:	76fb      	strb	r3, [r7, #27]
/Users/felipeneves/Documents/Projects/Embedded/uLipeRTOS/Debug/../RTOS/uLipe_Task.c:127

	//check for size of taskname:
	if(NameSize > 32)
 8000b9a:	f897 3028 	ldrb.w	r3, [r7, #40]	; 0x28
 8000b9e:	2b20      	cmp	r3, #32
 8000ba0:	d902      	bls.n	8000ba8 <Task_Create+0x38>
/Users/felipeneves/Documents/Projects/Embedded/uLipeRTOS/Debug/../RTOS/uLipe_Task.c:130
	{
		//return error if too long
		return(OS_NAME_TOO_LONG);
 8000ba2:	f04f 0305 	mov.w	r3, #5
 8000ba6:	e0d1      	b.n	8000d4c <Task_Create+0x1dc>
/Users/felipeneves/Documents/Projects/Embedded/uLipeRTOS/Debug/../RTOS/uLipe_Task.c:134
	}

	//first check for a empty task block
	for(LoopCntr = 0; LoopCntr <= NUMBER_OF_TASK ; LoopCntr++)
 8000ba8:	f04f 0300 	mov.w	r3, #0
 8000bac:	76fb      	strb	r3, [r7, #27]
 8000bae:	e053      	b.n	8000c58 <Task_Create+0xe8>
/Users/felipeneves/Documents/Projects/Embedded/uLipeRTOS/Debug/../RTOS/uLipe_Task.c:137
	{
		//check if current TCB is empty
		if(EMPTY == TaskList->EmptyTCB)
 8000bb0:	69fb      	ldr	r3, [r7, #28]
 8000bb2:	691b      	ldr	r3, [r3, #16]
 8000bb4:	2b00      	cmp	r3, #0
 8000bb6:	d138      	bne.n	8000c2a <Task_Create+0xba>
/Users/felipeneves/Documents/Projects/Embedded/uLipeRTOS/Debug/../RTOS/uLipe_Task.c:142
		{
			//if yes,fill the task TCB

			//put the task function
			TaskList->TaskAction =(taskptr_t *)TaskAction;
 8000bb8:	68fa      	ldr	r2, [r7, #12]
 8000bba:	69fb      	ldr	r3, [r7, #28]
 8000bbc:	61da      	str	r2, [r3, #28]
/Users/felipeneves/Documents/Projects/Embedded/uLipeRTOS/Debug/../RTOS/uLipe_Task.c:146

			//put the task stack, and points to its top.
			TaskList->TaskStack  =(os_stack_t* )(TaskStack +
								  (StackSize>>2) - 1);
 8000bbe:	6afb      	ldr	r3, [r7, #44]	; 0x2c
 8000bc0:	ea4f 0393 	mov.w	r3, r3, lsr #2
/Users/felipeneves/Documents/Projects/Embedded/uLipeRTOS/Debug/../RTOS/uLipe_Task.c:145

			//put the task function
			TaskList->TaskAction =(taskptr_t *)TaskAction;

			//put the task stack, and points to its top.
			TaskList->TaskStack  =(os_stack_t* )(TaskStack +
 8000bc4:	f103 33ff 	add.w	r3, r3, #4294967295	; 0xffffffff
 8000bc8:	ea4f 0383 	mov.w	r3, r3, lsl #2
 8000bcc:	68ba      	ldr	r2, [r7, #8]
 8000bce:	18d2      	adds	r2, r2, r3
 8000bd0:	69fb      	ldr	r3, [r7, #28]
 8000bd2:	619a      	str	r2, [r3, #24]
/Users/felipeneves/Documents/Projects/Embedded/uLipeRTOS/Debug/../RTOS/uLipe_Task.c:149
								  (StackSize>>2) - 1);

			//check for priority given
			if(TaskPriority < MAX_PRIORITY || TaskPriority > LESS_PRIORITY)
 8000bd4:	79fb      	ldrb	r3, [r7, #7]
 8000bd6:	2b1f      	cmp	r3, #31
 8000bd8:	d902      	bls.n	8000be0 <Task_Create+0x70>
/Users/felipeneves/Documents/Projects/Embedded/uLipeRTOS/Debug/../RTOS/uLipe_Task.c:152
			{
				//return if the priority is invalid
				return(OS_PRIORITY_OUT_OF_RANGE);
 8000bda:	f04f 0303 	mov.w	r3, #3
 8000bde:	e0b5      	b.n	8000d4c <Task_Create+0x1dc>
/Users/felipeneves/Documents/Projects/Embedded/uLipeRTOS/Debug/../RTOS/uLipe_Task.c:159

			//if priority is ok, continues to fill
			//the TCB

			//mask, and put the priority
			TaskList->TaskPriority = TaskPriority & 0x1F;
 8000be0:	79fb      	ldrb	r3, [r7, #7]
 8000be2:	f003 031f 	and.w	r3, r3, #31
 8000be6:	b2da      	uxtb	r2, r3
 8000be8:	69fb      	ldr	r3, [r7, #28]
 8000bea:	735a      	strb	r2, [r3, #13]
/Users/felipeneves/Documents/Projects/Embedded/uLipeRTOS/Debug/../RTOS/uLipe_Task.c:162

			//Points to the task name
			TaskList->TaskName = TaskName;
 8000bec:	69fb      	ldr	r3, [r7, #28]
 8000bee:	683a      	ldr	r2, [r7, #0]
 8000bf0:	615a      	str	r2, [r3, #20]
/Users/felipeneves/Documents/Projects/Embedded/uLipeRTOS/Debug/../RTOS/uLipe_Task.c:165

			//puts the calculated ID
			TaskList->TaskID   = LoopCntr;
 8000bf2:	69fb      	ldr	r3, [r7, #28]
 8000bf4:	7efa      	ldrb	r2, [r7, #27]
 8000bf6:	731a      	strb	r2, [r3, #12]
/Users/felipeneves/Documents/Projects/Embedded/uLipeRTOS/Debug/../RTOS/uLipe_Task.c:168

			//reset the time elapsed counter
			TaskList->TaskElapsedTime = 0;
 8000bf8:	69fb      	ldr	r3, [r7, #28]
 8000bfa:	f04f 0200 	mov.w	r2, #0
 8000bfe:	609a      	str	r2, [r3, #8]
/Users/felipeneves/Documents/Projects/Embedded/uLipeRTOS/Debug/../RTOS/uLipe_Task.c:172

			//calculate its deadline, based on
			//its priority
			TaskList->TaskTime = OS_TICKS +
 8000c00:	79fb      	ldrb	r3, [r7, #7]
 8000c02:	f503 737a 	add.w	r3, r3, #1000	; 0x3e8
 8000c06:	461a      	mov	r2, r3
 8000c08:	69fb      	ldr	r3, [r7, #28]
 8000c0a:	605a      	str	r2, [r3, #4]
/Users/felipeneves/Documents/Projects/Embedded/uLipeRTOS/Debug/../RTOS/uLipe_Task.c:176
								TaskPriority;

			//Put the initial TCB state
			TaskList->TaskState   = TASK_READY;
 8000c0c:	69fb      	ldr	r3, [r7, #28]
 8000c0e:	f04f 0200 	mov.w	r2, #0
 8000c12:	73da      	strb	r2, [r3, #15]
/Users/felipeneves/Documents/Projects/Embedded/uLipeRTOS/Debug/../RTOS/uLipe_Task.c:179

			//if all gone well, occupies the TCB
			TaskList->EmptyTCB    =  FILLED;
 8000c14:	69fb      	ldr	r3, [r7, #28]
 8000c16:	f04f 02ff 	mov.w	r2, #255	; 0xff
 8000c1a:	611a      	str	r2, [r3, #16]
/Users/felipeneves/Documents/Projects/Embedded/uLipeRTOS/Debug/../RTOS/uLipe_Task.c:182

			//Set the first time execution flag.
			TaskList->TaskFlags  |= TASK_FLAG_IS_FIRST_TIME;
 8000c1c:	69fb      	ldr	r3, [r7, #28]
 8000c1e:	681b      	ldr	r3, [r3, #0]
 8000c20:	f043 0201 	orr.w	r2, r3, #1
 8000c24:	69fb      	ldr	r3, [r7, #28]
 8000c26:	601a      	str	r2, [r3, #0]
/Users/felipeneves/Documents/Projects/Embedded/uLipeRTOS/Debug/../RTOS/uLipe_Task.c:185

			//filled TCB, break this loop
			break;
 8000c28:	e019      	b.n	8000c5e <Task_Create+0xee>
/Users/felipeneves/Documents/Projects/Embedded/uLipeRTOS/Debug/../RTOS/uLipe_Task.c:191

		}
		else
		{
			//else, try next TCB
			TaskList = &TaskBlockList[LoopCntr];
 8000c2a:	7efa      	ldrb	r2, [r7, #27]
 8000c2c:	4613      	mov	r3, r2
 8000c2e:	ea4f 0383 	mov.w	r3, r3, lsl #2
 8000c32:	189b      	adds	r3, r3, r2
 8000c34:	ea4f 03c3 	mov.w	r3, r3, lsl #3
 8000c38:	f640 1274 	movw	r2, #2420	; 0x974
 8000c3c:	f2c2 0200 	movt	r2, #8192	; 0x2000
 8000c40:	189b      	adds	r3, r3, r2
 8000c42:	61fb      	str	r3, [r7, #28]
/Users/felipeneves/Documents/Projects/Embedded/uLipeRTOS/Debug/../RTOS/uLipe_Task.c:194

			//check for tasklist full
			if(NUMBER_OF_TASK - 1  <  LoopCntr)
 8000c44:	7efb      	ldrb	r3, [r7, #27]
 8000c46:	2b06      	cmp	r3, #6
 8000c48:	d902      	bls.n	8000c50 <Task_Create+0xe0>
/Users/felipeneves/Documents/Projects/Embedded/uLipeRTOS/Debug/../RTOS/uLipe_Task.c:197
			{
				//if yes, return error
				return(OS_TASKLIST_FULL);
 8000c4a:	f04f 0302 	mov.w	r3, #2
 8000c4e:	e07d      	b.n	8000d4c <Task_Create+0x1dc>
/Users/felipeneves/Documents/Projects/Embedded/uLipeRTOS/Debug/../RTOS/uLipe_Task.c:134
		//return error if too long
		return(OS_NAME_TOO_LONG);
	}

	//first check for a empty task block
	for(LoopCntr = 0; LoopCntr <= NUMBER_OF_TASK ; LoopCntr++)
 8000c50:	7efb      	ldrb	r3, [r7, #27]
 8000c52:	f103 0301 	add.w	r3, r3, #1
 8000c56:	76fb      	strb	r3, [r7, #27]
 8000c58:	7efb      	ldrb	r3, [r7, #27]
 8000c5a:	2b07      	cmp	r3, #7
 8000c5c:	d9a8      	bls.n	8000bb0 <Task_Create+0x40>
/Users/felipeneves/Documents/Projects/Embedded/uLipeRTOS/Debug/../RTOS/uLipe_Task.c:206
	}
	//after fill the taskblock is time to insert it on the
	//tasklist linked list

	//Points first to the last TCB in Table(is head)
	TaskList = &TaskBlockList[NUMBER_OF_TASK];
 8000c5e:	4b3e      	ldr	r3, [pc, #248]	; (8000d58 <Task_Create+0x1e8>)
 8000c60:	61fb      	str	r3, [r7, #28]
/Users/felipeneves/Documents/Projects/Embedded/uLipeRTOS/Debug/../RTOS/uLipe_Task.c:209

	//check if Idle TCB was already initialized:
	if(EMPTY == TaskList->EmptyTCB)
 8000c62:	69fb      	ldr	r3, [r7, #28]
 8000c64:	691b      	ldr	r3, [r3, #16]
 8000c66:	2b00      	cmp	r3, #0
 8000c68:	d14c      	bne.n	8000d04 <Task_Create+0x194>
/Users/felipeneves/Documents/Projects/Embedded/uLipeRTOS/Debug/../RTOS/uLipe_Task.c:214
	{
		//if not, initialize it.

		//Put the task function (Task Idle)
		TaskList->TaskAction = (taskptr_t *)& Task_Idle;
 8000c6a:	69fa      	ldr	r2, [r7, #28]
 8000c6c:	f640 6349 	movw	r3, #3657	; 0xe49
 8000c70:	f6c0 0300 	movt	r3, #2048	; 0x800
 8000c74:	61d3      	str	r3, [r2, #28]
/Users/felipeneves/Documents/Projects/Embedded/uLipeRTOS/Debug/../RTOS/uLipe_Task.c:217

		//Points to task stack
		TaskList->TaskStack  = (os_stack_t *)(IdleTaskStack +
 8000c76:	69fb      	ldr	r3, [r7, #28]
 8000c78:	4a38      	ldr	r2, [pc, #224]	; (8000d5c <Task_Create+0x1ec>)
 8000c7a:	619a      	str	r2, [r3, #24]
/Users/felipeneves/Documents/Projects/Embedded/uLipeRTOS/Debug/../RTOS/uLipe_Task.c:221
							   (sizeof(IdleTaskStack) >> 2) - 1);

		//Assign its priority(is the least)
		TaskList->TaskPriority = LESS_PRIORITY + 1;
 8000c7c:	69fb      	ldr	r3, [r7, #28]
 8000c7e:	f04f 0220 	mov.w	r2, #32
 8000c82:	735a      	strb	r2, [r3, #13]
/Users/felipeneves/Documents/Projects/Embedded/uLipeRTOS/Debug/../RTOS/uLipe_Task.c:224

		//Assign its name pointing to it
		TaskList->TaskName = (os_taskname_t *) &IdleName;
 8000c84:	69fa      	ldr	r2, [r7, #28]
 8000c86:	f640 7380 	movw	r3, #3968	; 0xf80
 8000c8a:	f6c0 0300 	movt	r3, #2048	; 0x800
 8000c8e:	6153      	str	r3, [r2, #20]
/Users/felipeneves/Documents/Projects/Embedded/uLipeRTOS/Debug/../RTOS/uLipe_Task.c:227

		//Its ID is always the greater on tasklist
		TaskList->TaskID = NUMBER_OF_TASK + 1;
 8000c90:	69fb      	ldr	r3, [r7, #28]
 8000c92:	f04f 0208 	mov.w	r2, #8
 8000c96:	731a      	strb	r2, [r3, #12]
/Users/felipeneves/Documents/Projects/Embedded/uLipeRTOS/Debug/../RTOS/uLipe_Task.c:230

		//Reset its time counter
		TaskList->TaskElapsedTime = 0;
 8000c98:	69fb      	ldr	r3, [r7, #28]
 8000c9a:	f04f 0200 	mov.w	r2, #0
 8000c9e:	609a      	str	r2, [r3, #8]
/Users/felipeneves/Documents/Projects/Embedded/uLipeRTOS/Debug/../RTOS/uLipe_Task.c:234

		//Assign its Deadline based on its priority
		TaskList->TaskTime = OS_TICKS +
							TaskList->TaskPriority;
 8000ca0:	69fb      	ldr	r3, [r7, #28]
 8000ca2:	7b5b      	ldrb	r3, [r3, #13]
/Users/felipeneves/Documents/Projects/Embedded/uLipeRTOS/Debug/../RTOS/uLipe_Task.c:233

		//Reset its time counter
		TaskList->TaskElapsedTime = 0;

		//Assign its Deadline based on its priority
		TaskList->TaskTime = OS_TICKS +
 8000ca4:	f503 737a 	add.w	r3, r3, #1000	; 0x3e8
 8000ca8:	461a      	mov	r2, r3
 8000caa:	69fb      	ldr	r3, [r7, #28]
 8000cac:	605a      	str	r2, [r3, #4]
/Users/felipeneves/Documents/Projects/Embedded/uLipeRTOS/Debug/../RTOS/uLipe_Task.c:237
							TaskList->TaskPriority;

		//Set the initial state
		TaskList->TaskState   = TASK_READY;
 8000cae:	69fb      	ldr	r3, [r7, #28]
 8000cb0:	f04f 0200 	mov.w	r2, #0
 8000cb4:	73da      	strb	r2, [r3, #15]
/Users/felipeneves/Documents/Projects/Embedded/uLipeRTOS/Debug/../RTOS/uLipe_Task.c:240

		//Occupie its TCB
		TaskList->EmptyTCB    =  FILLED;
 8000cb6:	69fb      	ldr	r3, [r7, #28]
 8000cb8:	f04f 02ff 	mov.w	r2, #255	; 0xff
 8000cbc:	611a      	str	r2, [r3, #16]
/Users/felipeneves/Documents/Projects/Embedded/uLipeRTOS/Debug/../RTOS/uLipe_Task.c:243

		//Additionally, attach its as head of tasklist
		TaskList->NextTask    = &TaskBlockList[LoopCntr];
 8000cbe:	7efa      	ldrb	r2, [r7, #27]
 8000cc0:	4613      	mov	r3, r2
 8000cc2:	ea4f 0383 	mov.w	r3, r3, lsl #2
 8000cc6:	189b      	adds	r3, r3, r2
 8000cc8:	ea4f 03c3 	mov.w	r3, r3, lsl #3
 8000ccc:	f640 1274 	movw	r2, #2420	; 0x974
 8000cd0:	f2c2 0200 	movt	r2, #8192	; 0x2000
 8000cd4:	189a      	adds	r2, r3, r2
 8000cd6:	69fb      	ldr	r3, [r7, #28]
 8000cd8:	621a      	str	r2, [r3, #32]
/Users/felipeneves/Documents/Projects/Embedded/uLipeRTOS/Debug/../RTOS/uLipe_Task.c:246

		//attach next task...
		TaskList = TaskList->NextTask;
 8000cda:	69fb      	ldr	r3, [r7, #28]
 8000cdc:	6a1b      	ldr	r3, [r3, #32]
 8000cde:	61fb      	str	r3, [r7, #28]
/Users/felipeneves/Documents/Projects/Embedded/uLipeRTOS/Debug/../RTOS/uLipe_Task.c:249

		//...and the previous task
		TaskList->PrevTask = &TaskBlockList[NUMBER_OF_TASK];
 8000ce0:	69fb      	ldr	r3, [r7, #28]
 8000ce2:	4a1d      	ldr	r2, [pc, #116]	; (8000d58 <Task_Create+0x1e8>)
 8000ce4:	625a      	str	r2, [r3, #36]	; 0x24
/Users/felipeneves/Documents/Projects/Embedded/uLipeRTOS/Debug/../RTOS/uLipe_Task.c:252

		//marks the end of list
		TaskList->NextTask = END_LIST;
 8000ce6:	69fb      	ldr	r3, [r7, #28]
 8000ce8:	f04f 0200 	mov.w	r2, #0
 8000cec:	621a      	str	r2, [r3, #32]
/Users/felipeneves/Documents/Projects/Embedded/uLipeRTOS/Debug/../RTOS/uLipe_Task.c:255

		//Declare that task has never executed
		TaskList->TaskFlags |= TASK_FLAG_IS_FIRST_TIME;
 8000cee:	69fb      	ldr	r3, [r7, #28]
 8000cf0:	681b      	ldr	r3, [r3, #0]
 8000cf2:	f043 0201 	orr.w	r2, r3, #1
 8000cf6:	69fb      	ldr	r3, [r7, #28]
 8000cf8:	601a      	str	r2, [r3, #0]
 8000cfa:	e025      	b.n	8000d48 <Task_Create+0x1d8>
/Users/felipeneves/Documents/Projects/Embedded/uLipeRTOS/Debug/../RTOS/uLipe_Task.c:267
	{

		while(END_LIST != TaskList->NextTask)
		{
			//goes trhough the linked list:
			TaskList = TaskList->NextTask;
 8000cfc:	69fb      	ldr	r3, [r7, #28]
 8000cfe:	6a1b      	ldr	r3, [r3, #32]
 8000d00:	61fb      	str	r3, [r7, #28]
 8000d02:	e000      	b.n	8000d06 <Task_Create+0x196>
/Users/felipeneves/Documents/Projects/Embedded/uLipeRTOS/Debug/../RTOS/uLipe_Task.c:264
	//if Head of list exists, then attach the
	//TCB desired on it.
	else
	{

		while(END_LIST != TaskList->NextTask)
 8000d04:	bf00      	nop
 8000d06:	69fb      	ldr	r3, [r7, #28]
 8000d08:	6a1b      	ldr	r3, [r3, #32]
 8000d0a:	2b00      	cmp	r3, #0
 8000d0c:	d1f6      	bne.n	8000cfc <Task_Create+0x18c>
/Users/felipeneves/Documents/Projects/Embedded/uLipeRTOS/Debug/../RTOS/uLipe_Task.c:273
		}

		//when the end of list is found

		//The last item of list points to our new TCB
		TaskList->NextTask = &TaskBlockList[LoopCntr - 1];
 8000d0e:	7efb      	ldrb	r3, [r7, #27]
 8000d10:	f103 32ff 	add.w	r2, r3, #4294967295	; 0xffffffff
 8000d14:	4613      	mov	r3, r2
 8000d16:	ea4f 0383 	mov.w	r3, r3, lsl #2
 8000d1a:	189b      	adds	r3, r3, r2
 8000d1c:	ea4f 03c3 	mov.w	r3, r3, lsl #3
 8000d20:	f640 1274 	movw	r2, #2420	; 0x974
 8000d24:	f2c2 0200 	movt	r2, #8192	; 0x2000
 8000d28:	189a      	adds	r2, r3, r2
 8000d2a:	69fb      	ldr	r3, [r7, #28]
 8000d2c:	621a      	str	r2, [r3, #32]
/Users/felipeneves/Documents/Projects/Embedded/uLipeRTOS/Debug/../RTOS/uLipe_Task.c:276

		//and our new TCB...
		TaskToBeLinked     = TaskList->NextTask;
 8000d2e:	69fb      	ldr	r3, [r7, #28]
 8000d30:	6a1b      	ldr	r3, [r3, #32]
 8000d32:	617b      	str	r3, [r7, #20]
/Users/felipeneves/Documents/Projects/Embedded/uLipeRTOS/Debug/../RTOS/uLipe_Task.c:279

		//...points to the ex-last item as previous task
		TaskToBeLinked->PrevTask = TaskList;
 8000d34:	697b      	ldr	r3, [r7, #20]
 8000d36:	69fa      	ldr	r2, [r7, #28]
 8000d38:	625a      	str	r2, [r3, #36]	; 0x24
/Users/felipeneves/Documents/Projects/Embedded/uLipeRTOS/Debug/../RTOS/uLipe_Task.c:282

		//marks the new end of list
		TaskList = TaskList->NextTask;
 8000d3a:	69fb      	ldr	r3, [r7, #28]
 8000d3c:	6a1b      	ldr	r3, [r3, #32]
 8000d3e:	61fb      	str	r3, [r7, #28]
/Users/felipeneves/Documents/Projects/Embedded/uLipeRTOS/Debug/../RTOS/uLipe_Task.c:285


		TaskList->NextTask = END_LIST;
 8000d40:	69fb      	ldr	r3, [r7, #28]
 8000d42:	f04f 0200 	mov.w	r2, #0
 8000d46:	621a      	str	r2, [r3, #32]
/Users/felipeneves/Documents/Projects/Embedded/uLipeRTOS/Debug/../RTOS/uLipe_Task.c:290

	}

	//return a ok, if all gone well :)
	return(OS_OK);
 8000d48:	f04f 0300 	mov.w	r3, #0
/Users/felipeneves/Documents/Projects/Embedded/uLipeRTOS/Debug/../RTOS/uLipe_Task.c:291
}
 8000d4c:	4618      	mov	r0, r3
 8000d4e:	f107 0724 	add.w	r7, r7, #36	; 0x24
 8000d52:	46bd      	mov	sp, r7
 8000d54:	bc80      	pop	{r7}
 8000d56:	4770      	bx	lr
 8000d58:	20000a8c 	.word	0x20000a8c
 8000d5c:	20000970 	.word	0x20000970

08000d60 <Task_GetID>:
Task_GetID():
/Users/felipeneves/Documents/Projects/Embedded/uLipeRTOS/Debug/../RTOS/uLipe_Task.c:408
 	 return:	TODO


 ************************************************************************/
os_taskID_t Task_GetID(os_taskname_t *TaskName, uint8_t NameSize)
{
 8000d60:	b480      	push	{r7}
 8000d62:	b087      	sub	sp, #28
 8000d64:	af00      	add	r7, sp, #0
 8000d66:	6078      	str	r0, [r7, #4]
 8000d68:	460b      	mov	r3, r1
 8000d6a:	70fb      	strb	r3, [r7, #3]
/Users/felipeneves/Documents/Projects/Embedded/uLipeRTOS/Debug/../RTOS/uLipe_Task.c:409
	taskTCB_t *TaskList = &TaskBlockList[NUMBER_OF_TASK];
 8000d6c:	4b23      	ldr	r3, [pc, #140]	; (8000dfc <Task_GetID+0x9c>)
 8000d6e:	617b      	str	r3, [r7, #20]
/Users/felipeneves/Documents/Projects/Embedded/uLipeRTOS/Debug/../RTOS/uLipe_Task.c:411

	uint8_t LoopCntr = 0;
 8000d70:	f04f 0300 	mov.w	r3, #0
 8000d74:	74fb      	strb	r3, [r7, #19]
/Users/felipeneves/Documents/Projects/Embedded/uLipeRTOS/Debug/../RTOS/uLipe_Task.c:413

	os_taskname_t *ReferenceName = NULL;
 8000d76:	f04f 0300 	mov.w	r3, #0
 8000d7a:	60fb      	str	r3, [r7, #12]
/Users/felipeneves/Documents/Projects/Embedded/uLipeRTOS/Debug/../RTOS/uLipe_Task.c:416

	//check name size:
	if(NameSize > 32)
 8000d7c:	78fb      	ldrb	r3, [r7, #3]
 8000d7e:	2b20      	cmp	r3, #32
 8000d80:	d902      	bls.n	8000d88 <Task_GetID+0x28>
/Users/felipeneves/Documents/Projects/Embedded/uLipeRTOS/Debug/../RTOS/uLipe_Task.c:420
	{

		//if too long, return the error
		return(OS_NAME_TOO_LONG);
 8000d82:	f04f 0305 	mov.w	r3, #5
 8000d86:	e033      	b.n	8000df0 <Task_GetID+0x90>
/Users/felipeneves/Documents/Projects/Embedded/uLipeRTOS/Debug/../RTOS/uLipe_Task.c:425

	}

	//The current TCB is the idle block, well points to next:
	TaskList = TaskList->NextTask;
 8000d88:	697b      	ldr	r3, [r7, #20]
 8000d8a:	6a1b      	ldr	r3, [r3, #32]
 8000d8c:	617b      	str	r3, [r7, #20]
/Users/felipeneves/Documents/Projects/Embedded/uLipeRTOS/Debug/../RTOS/uLipe_Task.c:428

	//start the loopcounter:
	LoopCntr = 0;
 8000d8e:	f04f 0300 	mov.w	r3, #0
 8000d92:	74fb      	strb	r3, [r7, #19]
/Users/felipeneves/Documents/Projects/Embedded/uLipeRTOS/Debug/../RTOS/uLipe_Task.c:431

	//receive the pointer to name:
	ReferenceName = TaskList->TaskName;
 8000d94:	697b      	ldr	r3, [r7, #20]
 8000d96:	695b      	ldr	r3, [r3, #20]
 8000d98:	60fb      	str	r3, [r7, #12]
/Users/felipeneves/Documents/Projects/Embedded/uLipeRTOS/Debug/../RTOS/uLipe_Task.c:438
	//go through the tasklist:
	do
	{

		//compare their names
		while(NameSize >= LoopCntr)
 8000d9a:	e01a      	b.n	8000dd2 <Task_GetID+0x72>
/Users/felipeneves/Documents/Projects/Embedded/uLipeRTOS/Debug/../RTOS/uLipe_Task.c:442
		{
			//then, compare with reference
			//char by char
			if(TaskName == ReferenceName)
 8000d9c:	687a      	ldr	r2, [r7, #4]
 8000d9e:	68fb      	ldr	r3, [r7, #12]
 8000da0:	429a      	cmp	r2, r3
 8000da2:	d10c      	bne.n	8000dbe <Task_GetID+0x5e>
/Users/felipeneves/Documents/Projects/Embedded/uLipeRTOS/Debug/../RTOS/uLipe_Task.c:445
			{
				//if matches, goes to next char
				TaskName++;
 8000da4:	687b      	ldr	r3, [r7, #4]
 8000da6:	f103 0301 	add.w	r3, r3, #1
 8000daa:	607b      	str	r3, [r7, #4]
/Users/felipeneves/Documents/Projects/Embedded/uLipeRTOS/Debug/../RTOS/uLipe_Task.c:448

				//Reference advances too
				ReferenceName++;
 8000dac:	68fb      	ldr	r3, [r7, #12]
 8000dae:	f103 0301 	add.w	r3, r3, #1
 8000db2:	60fb      	str	r3, [r7, #12]
/Users/felipeneves/Documents/Projects/Embedded/uLipeRTOS/Debug/../RTOS/uLipe_Task.c:451

				//increments the loop counter:
				LoopCntr++;
 8000db4:	7cfb      	ldrb	r3, [r7, #19]
 8000db6:	f103 0301 	add.w	r3, r3, #1
 8000dba:	74fb      	strb	r3, [r7, #19]
 8000dbc:	e009      	b.n	8000dd2 <Task_GetID+0x72>
/Users/felipeneves/Documents/Projects/Embedded/uLipeRTOS/Debug/../RTOS/uLipe_Task.c:457

			}
			else
			{
				//well, try the next task
				TaskList = TaskList->NextTask;
 8000dbe:	697b      	ldr	r3, [r7, #20]
 8000dc0:	6a1b      	ldr	r3, [r3, #32]
 8000dc2:	617b      	str	r3, [r7, #20]
/Users/felipeneves/Documents/Projects/Embedded/uLipeRTOS/Debug/../RTOS/uLipe_Task.c:460

				//restarts the counter:
				LoopCntr = 0;
 8000dc4:	f04f 0300 	mov.w	r3, #0
 8000dc8:	74fb      	strb	r3, [r7, #19]
/Users/felipeneves/Documents/Projects/Embedded/uLipeRTOS/Debug/../RTOS/uLipe_Task.c:463

				//re-initialize the name pointer:
				ReferenceName = TaskList->TaskName;
 8000dca:	697b      	ldr	r3, [r7, #20]
 8000dcc:	695b      	ldr	r3, [r3, #20]
 8000dce:	60fb      	str	r3, [r7, #12]
/Users/felipeneves/Documents/Projects/Embedded/uLipeRTOS/Debug/../RTOS/uLipe_Task.c:466

				//breaks the loop
				break;
 8000dd0:	e003      	b.n	8000dda <Task_GetID+0x7a>
/Users/felipeneves/Documents/Projects/Embedded/uLipeRTOS/Debug/../RTOS/uLipe_Task.c:438
	//go through the tasklist:
	do
	{

		//compare their names
		while(NameSize >= LoopCntr)
 8000dd2:	78fa      	ldrb	r2, [r7, #3]
 8000dd4:	7cfb      	ldrb	r3, [r7, #19]
 8000dd6:	429a      	cmp	r2, r3
 8000dd8:	d2e0      	bcs.n	8000d9c <Task_GetID+0x3c>
/Users/felipeneves/Documents/Projects/Embedded/uLipeRTOS/Debug/../RTOS/uLipe_Task.c:472
			}

		}

		//check if the compare waas successfull:
		if(0 != LoopCntr)
 8000dda:	7cfb      	ldrb	r3, [r7, #19]
 8000ddc:	2b00      	cmp	r3, #0
 8000dde:	d002      	beq.n	8000de6 <Task_GetID+0x86>
/Users/felipeneves/Documents/Projects/Embedded/uLipeRTOS/Debug/../RTOS/uLipe_Task.c:477
		{

			//yep, then read the task ID
			//of this TCB and return it:
			return(TaskList->TaskID);
 8000de0:	697b      	ldr	r3, [r7, #20]
 8000de2:	7b1b      	ldrb	r3, [r3, #12]
 8000de4:	e004      	b.n	8000df0 <Task_GetID+0x90>
/Users/felipeneves/Documents/Projects/Embedded/uLipeRTOS/Debug/../RTOS/uLipe_Task.c:483

		}


	//if not, restarts the loop...
	}while(END_LIST != TaskList);
 8000de6:	697b      	ldr	r3, [r7, #20]
 8000de8:	2b00      	cmp	r3, #0
 8000dea:	d1f2      	bne.n	8000dd2 <Task_GetID+0x72>
/Users/felipeneves/Documents/Projects/Embedded/uLipeRTOS/Debug/../RTOS/uLipe_Task.c:486

	//if the task doesnt exist return a undefined ID
	return(UNDEFINED_ID);
 8000dec:	f04f 0309 	mov.w	r3, #9
/Users/felipeneves/Documents/Projects/Embedded/uLipeRTOS/Debug/../RTOS/uLipe_Task.c:488

}
 8000df0:	4618      	mov	r0, r3
 8000df2:	f107 071c 	add.w	r7, r7, #28
 8000df6:	46bd      	mov	sp, r7
 8000df8:	bc80      	pop	{r7}
 8000dfa:	4770      	bx	lr
 8000dfc:	20000a8c 	.word	0x20000a8c

08000e00 <Task_Query>:
Task_Query():
/Users/felipeneves/Documents/Projects/Embedded/uLipeRTOS/Debug/../RTOS/uLipe_Task.c:502
 	 return:	TODO


 ************************************************************************/
taskTCB_t* 	Task_Query(os_taskID_t TaskID)
{
 8000e00:	b480      	push	{r7}
 8000e02:	b085      	sub	sp, #20
 8000e04:	af00      	add	r7, sp, #0
 8000e06:	4603      	mov	r3, r0
 8000e08:	71fb      	strb	r3, [r7, #7]
/Users/felipeneves/Documents/Projects/Embedded/uLipeRTOS/Debug/../RTOS/uLipe_Task.c:503
	taskTCB_t *TaskList = &TaskBlockList[NUMBER_OF_TASK];
 8000e0a:	4b0e      	ldr	r3, [pc, #56]	; (8000e44 <Task_Query+0x44>)
 8000e0c:	60fb      	str	r3, [r7, #12]
/Users/felipeneves/Documents/Projects/Embedded/uLipeRTOS/Debug/../RTOS/uLipe_Task.c:506

	//check for a undefined ID:
	if(UNDEFINED_ID == TaskID)
 8000e0e:	79fb      	ldrb	r3, [r7, #7]
 8000e10:	2b09      	cmp	r3, #9
 8000e12:	d102      	bne.n	8000e1a <Task_Query+0x1a>
/Users/felipeneves/Documents/Projects/Embedded/uLipeRTOS/Debug/../RTOS/uLipe_Task.c:509
	{
		//if yes, return a Null pointer
		return(NULL);
 8000e14:	f04f 0300 	mov.w	r3, #0
 8000e18:	e00e      	b.n	8000e38 <Task_Query+0x38>
/Users/felipeneves/Documents/Projects/Embedded/uLipeRTOS/Debug/../RTOS/uLipe_Task.c:516

	//the alghoritm is very simple:
	do
	{
		//go trhough tasklist and compares by ID:
		if(TaskID == TaskList->TaskID)
 8000e1a:	68fb      	ldr	r3, [r7, #12]
 8000e1c:	7b1b      	ldrb	r3, [r3, #12]
 8000e1e:	79fa      	ldrb	r2, [r7, #7]
 8000e20:	429a      	cmp	r2, r3
 8000e22:	d101      	bne.n	8000e28 <Task_Query+0x28>
/Users/felipeneves/Documents/Projects/Embedded/uLipeRTOS/Debug/../RTOS/uLipe_Task.c:519
		{
			//if the IDs was matched, return this TCB
			return ((taskTCB_t *)TaskList);
 8000e24:	68fb      	ldr	r3, [r7, #12]
 8000e26:	e007      	b.n	8000e38 <Task_Query+0x38>
/Users/felipeneves/Documents/Projects/Embedded/uLipeRTOS/Debug/../RTOS/uLipe_Task.c:523
		}

		//if not, go to next task
		TaskList = TaskList->NextTask;
 8000e28:	68fb      	ldr	r3, [r7, #12]
 8000e2a:	6a1b      	ldr	r3, [r3, #32]
 8000e2c:	60fb      	str	r3, [r7, #12]
/Users/felipeneves/Documents/Projects/Embedded/uLipeRTOS/Debug/../RTOS/uLipe_Task.c:526

	//until the list ends
	}while(END_LIST != TaskList);
 8000e2e:	68fb      	ldr	r3, [r7, #12]
 8000e30:	2b00      	cmp	r3, #0
 8000e32:	d1f2      	bne.n	8000e1a <Task_Query+0x1a>
/Users/felipeneves/Documents/Projects/Embedded/uLipeRTOS/Debug/../RTOS/uLipe_Task.c:530

	//if the ID is not match to any registered task,
	//returns a null pointer
	return(NULL);
 8000e34:	f04f 0300 	mov.w	r3, #0
/Users/felipeneves/Documents/Projects/Embedded/uLipeRTOS/Debug/../RTOS/uLipe_Task.c:532

}
 8000e38:	4618      	mov	r0, r3
 8000e3a:	f107 0714 	add.w	r7, r7, #20
 8000e3e:	46bd      	mov	sp, r7
 8000e40:	bc80      	pop	{r7}
 8000e42:	4770      	bx	lr
 8000e44:	20000a8c 	.word	0x20000a8c

08000e48 <Task_Idle>:
Task_Idle():
/Users/felipeneves/Documents/Projects/Embedded/uLipeRTOS/Debug/../RTOS/uLipe_Task.c:656
 	 return:	TODO


 ************************************************************************/
void Task_Idle(void *TaskArgs)
{
 8000e48:	b480      	push	{r7}
 8000e4a:	b083      	sub	sp, #12
 8000e4c:	af00      	add	r7, sp, #0
 8000e4e:	6078      	str	r0, [r7, #4]
/Users/felipeneves/Documents/Projects/Embedded/uLipeRTOS/Debug/../RTOS/uLipe_Task.c:657
	while(1);
 8000e50:	e7fe      	b.n	8000e50 <Task_Idle+0x8>
 8000e52:	bf00      	nop

08000e54 <memset>:
memset():
 8000e54:	b4f0      	push	{r4, r5, r6, r7}
 8000e56:	0784      	lsls	r4, r0, #30
 8000e58:	4603      	mov	r3, r0
 8000e5a:	f000 808e 	beq.w	8000f7a <memset+0x126>
 8000e5e:	1e54      	subs	r4, r2, #1
 8000e60:	2a00      	cmp	r2, #0
 8000e62:	f000 8088 	beq.w	8000f76 <memset+0x122>
 8000e66:	07e5      	lsls	r5, r4, #31
 8000e68:	b2ce      	uxtb	r6, r1
 8000e6a:	d411      	bmi.n	8000e90 <memset+0x3c>
 8000e6c:	461a      	mov	r2, r3
 8000e6e:	1e67      	subs	r7, r4, #1
 8000e70:	f802 6b01 	strb.w	r6, [r2], #1
 8000e74:	4613      	mov	r3, r2
 8000e76:	4615      	mov	r5, r2
 8000e78:	0792      	lsls	r2, r2, #30
 8000e7a:	d00f      	beq.n	8000e9c <memset+0x48>
 8000e7c:	2c00      	cmp	r4, #0
 8000e7e:	d07a      	beq.n	8000f76 <memset+0x122>
 8000e80:	f803 6b01 	strb.w	r6, [r3], #1
 8000e84:	079a      	lsls	r2, r3, #30
 8000e86:	463c      	mov	r4, r7
 8000e88:	461d      	mov	r5, r3
 8000e8a:	d007      	beq.n	8000e9c <memset+0x48>
 8000e8c:	3c01      	subs	r4, #1
 8000e8e:	e7ed      	b.n	8000e6c <memset+0x18>
 8000e90:	4603      	mov	r3, r0
 8000e92:	f803 6b01 	strb.w	r6, [r3], #1
 8000e96:	079a      	lsls	r2, r3, #30
 8000e98:	461d      	mov	r5, r3
 8000e9a:	d1f7      	bne.n	8000e8c <memset+0x38>
 8000e9c:	2c03      	cmp	r4, #3
 8000e9e:	d952      	bls.n	8000f46 <memset+0xf2>
 8000ea0:	b2ce      	uxtb	r6, r1
 8000ea2:	ea46 2706 	orr.w	r7, r6, r6, lsl #8
 8000ea6:	2c0f      	cmp	r4, #15
 8000ea8:	ea47 4307 	orr.w	r3, r7, r7, lsl #16
 8000eac:	d92d      	bls.n	8000f0a <memset+0xb6>
 8000eae:	f1a4 0210 	sub.w	r2, r4, #16
 8000eb2:	4617      	mov	r7, r2
 8000eb4:	2f0f      	cmp	r7, #15
 8000eb6:	f3c2 1600 	ubfx	r6, r2, #4, #1
 8000eba:	602b      	str	r3, [r5, #0]
 8000ebc:	606b      	str	r3, [r5, #4]
 8000ebe:	60ab      	str	r3, [r5, #8]
 8000ec0:	60eb      	str	r3, [r5, #12]
 8000ec2:	f105 0210 	add.w	r2, r5, #16
 8000ec6:	d916      	bls.n	8000ef6 <memset+0xa2>
 8000ec8:	b13e      	cbz	r6, 8000eda <memset+0x86>
 8000eca:	3f10      	subs	r7, #16
 8000ecc:	6013      	str	r3, [r2, #0]
 8000ece:	6053      	str	r3, [r2, #4]
 8000ed0:	6093      	str	r3, [r2, #8]
 8000ed2:	60d3      	str	r3, [r2, #12]
 8000ed4:	3210      	adds	r2, #16
 8000ed6:	2f0f      	cmp	r7, #15
 8000ed8:	d90d      	bls.n	8000ef6 <memset+0xa2>
 8000eda:	3f20      	subs	r7, #32
 8000edc:	f102 0610 	add.w	r6, r2, #16
 8000ee0:	6013      	str	r3, [r2, #0]
 8000ee2:	6053      	str	r3, [r2, #4]
 8000ee4:	6093      	str	r3, [r2, #8]
 8000ee6:	60d3      	str	r3, [r2, #12]
 8000ee8:	6113      	str	r3, [r2, #16]
 8000eea:	6153      	str	r3, [r2, #20]
 8000eec:	6193      	str	r3, [r2, #24]
 8000eee:	61d3      	str	r3, [r2, #28]
 8000ef0:	3220      	adds	r2, #32
 8000ef2:	2f0f      	cmp	r7, #15
 8000ef4:	d8f1      	bhi.n	8000eda <memset+0x86>
 8000ef6:	f1a4 0210 	sub.w	r2, r4, #16
 8000efa:	f022 020f 	bic.w	r2, r2, #15
 8000efe:	f004 040f 	and.w	r4, r4, #15
 8000f02:	3210      	adds	r2, #16
 8000f04:	2c03      	cmp	r4, #3
 8000f06:	4415      	add	r5, r2
 8000f08:	d91d      	bls.n	8000f46 <memset+0xf2>
 8000f0a:	1f27      	subs	r7, r4, #4
 8000f0c:	463e      	mov	r6, r7
 8000f0e:	462a      	mov	r2, r5
 8000f10:	2e03      	cmp	r6, #3
 8000f12:	f842 3b04 	str.w	r3, [r2], #4
 8000f16:	f3c7 0780 	ubfx	r7, r7, #2, #1
 8000f1a:	d90d      	bls.n	8000f38 <memset+0xe4>
 8000f1c:	b127      	cbz	r7, 8000f28 <memset+0xd4>
 8000f1e:	3e04      	subs	r6, #4
 8000f20:	2e03      	cmp	r6, #3
 8000f22:	f842 3b04 	str.w	r3, [r2], #4
 8000f26:	d907      	bls.n	8000f38 <memset+0xe4>
 8000f28:	4617      	mov	r7, r2
 8000f2a:	3e08      	subs	r6, #8
 8000f2c:	f847 3b04 	str.w	r3, [r7], #4
 8000f30:	6053      	str	r3, [r2, #4]
 8000f32:	1d3a      	adds	r2, r7, #4
 8000f34:	2e03      	cmp	r6, #3
 8000f36:	d8f7      	bhi.n	8000f28 <memset+0xd4>
 8000f38:	1f23      	subs	r3, r4, #4
 8000f3a:	f023 0203 	bic.w	r2, r3, #3
 8000f3e:	1d13      	adds	r3, r2, #4
 8000f40:	f004 0403 	and.w	r4, r4, #3
 8000f44:	18ed      	adds	r5, r5, r3
 8000f46:	b1b4      	cbz	r4, 8000f76 <memset+0x122>
 8000f48:	462b      	mov	r3, r5
 8000f4a:	b2c9      	uxtb	r1, r1
 8000f4c:	f803 1b01 	strb.w	r1, [r3], #1
 8000f50:	192c      	adds	r4, r5, r4
 8000f52:	43ed      	mvns	r5, r5
 8000f54:	1962      	adds	r2, r4, r5
 8000f56:	42a3      	cmp	r3, r4
 8000f58:	f002 0501 	and.w	r5, r2, #1
 8000f5c:	d00b      	beq.n	8000f76 <memset+0x122>
 8000f5e:	b11d      	cbz	r5, 8000f68 <memset+0x114>
 8000f60:	f803 1b01 	strb.w	r1, [r3], #1
 8000f64:	42a3      	cmp	r3, r4
 8000f66:	d006      	beq.n	8000f76 <memset+0x122>
 8000f68:	461a      	mov	r2, r3
 8000f6a:	f802 1b01 	strb.w	r1, [r2], #1
 8000f6e:	7059      	strb	r1, [r3, #1]
 8000f70:	1c53      	adds	r3, r2, #1
 8000f72:	42a3      	cmp	r3, r4
 8000f74:	d1f8      	bne.n	8000f68 <memset+0x114>
 8000f76:	bcf0      	pop	{r4, r5, r6, r7}
 8000f78:	4770      	bx	lr
 8000f7a:	4605      	mov	r5, r0
 8000f7c:	4614      	mov	r4, r2
 8000f7e:	e78d      	b.n	8000e9c <memset+0x48>

08000f80 <IdleName>:
 8000f80:	6154 6b73 6449 656c                         TaskIdle
